(lp0
(lp1
S'Your Next Personal Trainer'
p2
aa(lp3
S'Sign Language Recognition using Temporal Classification'
p4
aa(lp5
S'Blind Audio Source Separation Pipeline and Algorithm Evaluation'
p6
aa(lp7
S'Smart Adaptive Sampling for Photorealistic Rendering: Learning Samplers for Monte Carlo Ray Tracing'
p8
aa(lp9
S'Prediction of Post-Collegiate Earnings'
p10
aa(lp11
S'Playing Tetris with Genetic Algorithms'
p12
aa(lp13
S'Learning with Difference of Gaussian Features in the 3D Segmentation of Glioblastoma Brain Tumors'
p14
aa(lp15
S'Improved Search for Explore Courses'
p16
aa(lp17
S'Landslides Susceptibility Mapping In Nepal Using Spatial Feature Vectors'
p18
aa(lp19
S'Deep Reinforcement Learning for Flappy Bird'
p20
aa(lp21
S'Activity Recognition Using Cell Phones'
p22
aa(lp23
S'College Football Bowl Predictor'
p24
aa(lp25
S'Condition Monitoring Using Accelerometer Readings'
p26
aa(lp27
S'Draft Kings and Queens'
p28
aa(lp29
S'Finding the Optimal Fantasy Football Team'
p30
aa(lp31
S'Human Activity Recognition Using Wearable Devices Sensor Data'
p32
aa(lp33
S'Human Activity Recognition: Accelerometers Unveil Your Actions'
p34
aa(lp35
S'Identifying injury-inducing factors in baseball pitchers'
p36
aa(lp37
S'Localization Through Wireless Access Point Channel State Information'
p38
aa(lp39
S'Machine Learning for Daily Fantasy Football Quarterback Selection'
p40
aa(lp41
S'Predicting Final Scores of Major League Baseball Games'
p42
aa(lp43
S'Predicting Momentum Streaks in the NBA'
p44
aa(lp45
S'Predicting Optimal Game Day Fantasy Football Teams'
p46
aa(lp47
S'Predicting Short-Range Displacements From Sensor Data'
p48
aa(lp49
S'Predicting Win Percentage and Winning Features of NBA Teams'
p50
aa(lp51
S'Sign Language Recognition using Temporal Classification'
p52
aa(lp53
S'Using Pre-NBA Data to Predict Early NBA Career Success'
p54
aa(lp55
S'Win Some, Learn Some'
p56
aa(lp57
S'A Soundhound for the sound of hounds'
p58
aa(lp59
S'Acoustic Texture Classification'
p60
aa(lp61
S'Automatic Playlist Generation'
p62
aa(lp63
S'Automatic Rhythmic Notation from Single-Voice Audio Sources'
p64
aa(lp65
S'Blind Audio Source Separation Pipeline and Algorithm Evaluation'
p66
aa(lp67
S'Classification of Irish and Scandinavian Folk Music by Dance Type'
p68
aa(lp69
S'Clustering Bach chorale melodies'
p70
aa(lp71
S'Clustering Music by Genres'
p72
aa(lp73
S'Electric Guitar Pickups Recognition '
p74
aa(lp75
S'Experimenting with Algorithmic Composition Techniques'
p76
aa(lp77
S'For-TUNE teller'
p78
aa(lp79
S'How Fire is Your Mixtape?'
p80
aa(lp81
S'Using Social Media Metrics to Predict Artist and Album Success'
p82
aa(lp83
S'Intelligent Rapid Voice Recognition Using Neural Tensor Networks, Support Vector Machines, and Reinforcement Learning'
p84
aa(lp85
S'Learning Instrument Identification'
p86
aa(lp87
S'Machine Learning in Automatic Music Chords Generation'
p88
aa(lp89
S'Melody Extraction from Generic Audio Clips'
p90
aa(lp91
S'Offline Music Recommendation'
p92
aa(lp93
S'Predicting Musical Eras of Songs'
p94
aa(lp95
S'Predicting Song Popularity'
p96
aa(lp97
S"Predicting a Song's Path and Success Through the Billboard Hot 100"
p98
aa(lp99
S'SpeakerTagger: a Speaker Diarization System'
p100
aa(lp101
S'Spectral Transition-Based Playlist Prediction'
p102
aa(lp103
S'Speech to Song Classification'
p104
aa(lp105
S'Spoken Character Recognition'
p106
aa(lp107
S'Top 100 Song Classifier'
p108
aa(lp109
S'3D model classification using convolutional neural network'
p110
aa(lp111
S'Automated Image Artifact Identification in Dark Energy Survey CCD Exposures'
p112
aa(lp113
S'Automatic Image Colorization'
p114
aa(lp115
S'Calorie Estimation from Food Images'
p116
aa(lp117
S'Classification of Novel Genres by Cover and Title'
p118
aa(lp119
S'Classification of photographic images based on perceived aesthetic quality'
p120
aa(lp121
S'Classifying Non-Manual Markers in American Sign Language'
p122
aa(lp123
S'Dynamic Eye Gaze Tracking and Prediction for Foveated Rendering and Retinal Blur'
p124
aa(lp125
S'Emotion Calssification on Face Images'
p126
aa(lp127
S'Eyes around the world - Learning to alert and cluster live webcams'
p128
aa(lp129
S'Facial Keypoint Detection'
p130
aa(lp131
S'FarmX: Leaf based disease identification in farms'
p132
aa(lp133
S'Finding Poverty in Satellite Images'
p134
aa(lp135
S'From Grayscale to Color: Digital Image Colorization using Machine Learning'
p136
aa(lp137
S'Generating Motion Capture Animation for Arbitrary Rigs'
p138
aa(lp139
S'Handwritten Digit Recognition through Unsupervised Learning'
p140
aa(lp141
S'Learning of visualization of object recognition features and image reconstruction'
p142
aa(lp143
S'Learning to recognize English sentence'
p144
aa(lp145
S'Matching Handwriting With Its Author'
p146
aa(lp147
S'Object Classification Using RGB-D Data for Vision Aids'
p148
aa(lp149
S'Object classification for autonomous vehicle navigation of Stanford campus'
p150
aa(lp151
S'Pedestrian Detection with RCNN'
p152
aa(lp153
S'Photo aesthetics evaluation system: an application of CNN and SVM'
p154
aa(lp155
S'Planet Labels - How do we use our earth?'
p156
aa(lp157
S'Smart Adaptive Sampling for Photorealistic Rendering: Learning Samplers for Monte Carlo Ray Tracing'
p158
aa(lp159
S'Spacecraft Navigation in Cluttered, Dynamic Environments Using 3D Lidar'
p160
aa(lp161
S'User Demographics and Profile Pictures as a Predictor of Attractiveness in AI Meets Online Dating Online Dating Profiles'
p162
aa(lp163
S'Using CNNs to Estimate Depth from Stereo Imagery '
p164
aa(lp165
S'Vision-Based Hand Hygiene Monitoring in Hospitals'
p166
aa(lp167
S'Whale Detection & Identification from Aerial Photography'
p168
aa(lp169
S"What can we learn from a movie's color?"
p170
aa(lp171
S"What's your Type? Personalized Predictions of Facial Attractiveness"
p172
aa(lp173
S'Your Next Personal Trainer'
p174
aa(lp175
S'A pairs trading strategy for GS/MS using machine learning'
p176
aa(lp177
S'Anonymous Marketplace Vendor Exit Scam Detection'
p178
aa(lp179
S'Are you open?'
p180
aa(lp181
S'Credit Estimation for Chinese Construction Companies'
p182
aa(lp183
S'Discriminative market price model for Magic: The Gathering cards based on card mechanics'
p184
aa(lp185
S'Examining Long-Term Trends in Company Fundamentals Data'
p186
aa(lp187
S'Exploring Commodity and Stock Volatility using Topic Modeling on Historical News Articles -- Application to Crude Oil Prices'
p188
aa(lp189
S'Exploring the Structure of Private Foundations'
p190
aa(lp191
S'Financial Magic'
p192
aa(lp193
S'Forecast sales using store, promotion, and competitor data'
p194
aa(lp195
S'Forecasting Drug Store Sales Using Machine Learning Techniques'
p196
aa(lp197
S'Forecasting Rossmann Store sales using store, promotion, and competitor data in machine learning techniques'
p198
aa(lp199
S'Gradient Boosting Trees to Predict Store Sales'
p200
aa(lp201
S'How can machine learning help stock investment?'
p202
aa(lp203
S'KPI-Driven Predictive ML Models Approach Towards Municipal Budgeting Optimization'
p204
aa(lp205
S'Long-Short Strategy Using Bank Analysts Recommendations'
p206
aa(lp207
S'Multifaceted Predictive Algorithms in Commodity Markets'
p208
aa(lp209
S'Portfolio Recommendation System'
p210
aa(lp211
S'Predicting Default Rate of a Lending Club User'
p212
aa(lp213
S'Predicting Financial Market Stability Using News and Google Trends Data'
p214
aa(lp215
S'Predicting Future Employment, Productivity, and Income'
p216
aa(lp217
S'Predicting Intraday Market Volatility Using Macroeconomic Headline News'
p218
aa(lp219
S'Predicting Movie Revenue from Pre-Release Data'
p220
aa(lp221
S'Predicting Rossman Store Sales'
p222
aa(lp223
S'Predicting Short-term Market Response to Liquidity Shocks'
p224
aa(lp225
S'Predicting Stock Prices through Textual Analysis of Web News'
p226
aa(lp227
S'Predicting Student Earnings After College'
p228
aa(lp229
S'Predicting Valuations of Venture Capital-backed Private Companies'
p230
aa(lp231
S'Predicting business ratings on Yelp'
p232
aa(lp233
S'Predicting political ideology using campaign finance data'
p234
aa(lp235
S'Prediction of Airline Ticket Price'
p236
aa(lp237
S'Prediction of Post-Collegiate Earnings'
p238
aa(lp239
S'Prediction of Time of Peak Exchange Rate'
p240
aa(lp241
S'Rossman Store Sales Prediction'
p242
aa(lp243
S'Rossmann Store Sales Prediction'
p244
aa(lp245
S'Rossmann Time Series'
p246
aa(lp247
S'Rossmann store sales quantity prediction'
p248
aa(lp249
S'Sales Prediction for Rossmann Drug Stores'
p250
aa(lp251
S'Sales Prediction with Time Series Modeling'
p252
aa(lp253
S'Short Term Price Prediction in Financial Markets'
p254
aa(lp255
S'Using Decision Tree to predict repeat customers'
p256
aa(lp257
S'Using machine learning for medium frequency derivative portfolio trading'
p258
aa(lp259
S'A Personalized Company Recommender System for Job Seekers '
p260
aa(lp261
S'A study of ensemble methods in machine learning'
p262
aa(lp263
S'An Application of Machine Learning to Native Advertisements'
p264
aa(lp265
S'Analyzing Donations to 2016 Presidential Candidates'
p266
aa(lp267
S'Bitcoin UTXO Lifespan Prediction'
p268
aa(lp269
S'Can Machines Recognize Expertise?'
p270
aa(lp271
S'Crime classification and prediction in San Francisco city'
p272
aa(lp273
S'Gimme Food by The Yelping Stones'
p274
aa(lp275
S'Incorporating Nesterov Momentum into Adam'
p276
aa(lp277
S'ML in Network Intrusion Detection'
p278
aa(lp279
S'Machine Hound: Following an olfactory trail'
p280
aa(lp281
S'Machine Learning Applied to Visual Odometry'
p282
aa(lp283
S'Machine Learning Equalization Techniques for High Speed PAM4 Fiber Optic Communication Systems'
p284
aa(lp285
S'MasterChef'
p286
aa(lp287
S'Modeling MOOC Dropouts'
p288
aa(lp289
S'Neighborhood and Review Score Prediction for Airbnb Listings'
p290
aa(lp291
S'Online Detection of Code Reuse Attacks'
p292
aa(lp293
S'Playing Tetris with Genetic Algorithms'
p294
aa(lp295
S'Plead or Pitch? Predicting the Performance of Kickstarter Campaigns'
p296
aa(lp297
S"Predict Employees' Computer Access Needs in Company"
p298
aa(lp299
S"Predicting A Student's Performance"
p300
aa(lp301
S'Predicting Bill Passage'
p302
aa(lp303
S'Predicting Bill Votes in the House of Representatives'
p304
aa(lp305
S'Predicting Congressional Bill Outcomes'
p306
aa(lp307
S'Predicting Recidivism'
p308
aa(lp309
S'Predicting Roles in "The Resistance" Board Game'
p310
aa(lp311
S'Predicting Running Ability from Race History'
p312
aa(lp313
S'Predicting Wine Varietals from Reviews'
p314
aa(lp315
S'Predicting a Happier Place'
p316
aa(lp317
S'Predicting quality of wine based on chemical attributes'
p318
aa(lp319
S'Predicting winning rate of DotA2 games'
p320
aa(lp321
S'Prediction algorithm for crime recidivism'
p322
aa(lp323
S'Quantifying decision impact in MOBA games'
p324
aa(lp325
S'Recognizing network traces of various web services'
p326
aa(lp327
S'Recommendation System Leveraging Heterogeneity of Relations  in a Social Network'
p328
aa(lp329
S'RoboCop: Crime Classification and Prediction in San Francisco'
p330
aa(lp331
S'Robust Streaming Video Traffic Classification'
p332
aa(lp333
S'Service Capacity Estimation Through Telemetry Analysis'
p334
aa(lp335
S'SocialSense: Quantifying Social Media Linkage and Malicious Intent Across the Web'
p336
aa(lp337
S'Top-Rated Series Characterization and Audience Rating Prediction'
p338
aa(lp339
S'Using Facebook Profiles to Predict Sexual Orientation'
p340
aa(lp341
S'What makes a good muffin?'
p342
aa(lp343
S'Advanced machine learning techniques for thyroid cancer diagnosis'
p344
aa(lp345
S'Advanced machine learning techniques for thyroid cancer diagnosis '
p346
aa(lp347
S'Automated Pathology through Machine Learning'
p348
aa(lp349
S'Automating Neurological Disease Diagnosis Using Structural MR Brain Scan Features'
p350
aa(lp351
S'Biomarker identification for early-stage diabetes diagnosis in mice liver cells'
p352
aa(lp353
S'Classication of Behavioral Decision using Pre-decision Neural Activity'
p354
aa(lp355
S'Classification of High Grade vs Low Grade GBM Tumor'
p356
aa(lp357
S'Classifications of Subject Motion for Improved Reconstruction of Dynamic Magnetic Resonance Imaging'
p358
aa(lp359
S'Computer aided detection of endolymphatic hydrops to aid the diagnosis of Meniere\xe2\x80\x99s disease'
p360
aa(lp361
S'Data fusion for predicting cancer survival'
p362
aa(lp363
S'Detecting gene-by-environment interaction in coronary artery disease '
p364
aa(lp365
S'Determination of cell types in Chicken utricle'
p366
aa(lp367
S'Diagnosing Type II Diabetes'
p368
aa(lp369
S'Doctor Bayes'
p370
aa(lp371
S'ECG R-R Interval Estimation'
p372
aa(lp373
S'Identifying Cardiomyocytes from Acoustic Measurements'
p374
aa(lp375
S'Kernel learning framework for cancer subtype analysiswith multi-omics data integration'
p376
aa(lp377
S'Learning the topology of the genome from protein-DNA interactions'
p378
aa(lp379
S'Learning with Difference of Gaussian Features in the 3D Segmentation of Glioblastoma Brain Tumors'
p380
aa(lp381
S'Machine Learning Classifier for Preoperative Diagnosis of Benign Thyroid Nodules'
p382
aa(lp383
S'Medical Record Understanding'
p384
aa(lp385
S'Medical image retrieval from 3D lesion content'
p386
aa(lp387
S'Methods for Prediction of Type 2 Diabetes'
p388
aa(lp389
S'Needle Tumor Puncture Detection Using a Force and Position Sensor'
p390
aa(lp391
S'Predicting Corporate Influence Cascades In Health Care Communities'
p392
aa(lp393
S'Prediction of clinical outcomes in breast invasive carcinoma using omics data'
p394
aa(lp395
S'Reducing False Arrhythmia Alarms in the Intensive Care Unit'
p396
aa(lp397
S'Scanning probe microscopy based on reinforcement learning'
p398
aa(lp399
S'Techniques for Local Ancestry Inference in Admixed Populations'
p400
aa(lp401
S'The Price is Right? Estimating Medical Costs with Machine Learning'
p402
aa(lp403
S'Thyroid Dysfunction: Prediction and Diagnostics'
p404
aa(lp405
S'Tracing SPN dendritic branches and classifying their neuronal inputs'
p406
aa(lp407
S'Unsupervised Learning for Analyzing Brain Tumors'
p408
aa(lp409
S'Unsupervised learning of emergent structure in simulated neural data'
p410
aa(lp411
S'Using DNA methylation to predict white blood cells frequencies in tumor tissue samples'
p412
aa(lp413
S'Using Spectral Clustering to Sample Molecular States and Pathways'
p414
aa(lp415
S'A Movie Recommender System from Tweets Data'
p416
aa(lp417
S'A Personal Conversational Model'
p418
aa(lp419
S'Algorithmic Trading of Cryptocurrency Based on Twitter Sentiment Analysis'
p420
aa(lp421
S'Analysis on Yelp User Preference'
p422
aa(lp423
S'Anomaly Detection in Lengthy Legal Documents'
p424
aa(lp425
S'Application of Deep Learning in Yelp Review Analysis'
p426
aa(lp427
S'Application of Unsupervised Learning For Business Segmentation, Using Yelp Data'
p428
aa(lp429
S'Applying adversarial examples to text classification of natural language'
p430
aa(lp431
S'Assessing and Implementing Automated News Classification Algorithms'
p432
aa(lp433
S'Autoranking Amazon Reviews'
p434
aa(lp435
S'Autotagging and Evaluating Text Relevance'
p436
aa(lp437
S'Building an AI for the Wikipedia Game'
p438
aa(lp439
S'Clustering a Customer Base Using Twitter Data'
p440
aa(lp441
S'Contextual Code Completion'
p442
aa(lp443
S'Cuisine Classification from Ingredients'
p444
aa(lp445
S'Detecting Sarcasm In Text: An Obvious Solution to a Trivial Problem'
p446
aa(lp447
S'Divergent Recommendations for Yelp Users'
p448
aa(lp449
S"Don't Feed the Trolls: Insult Detection on Online Communities"
p450
aa(lp451
S'Drug and Chemical Compound Named Entity Recognition using Convolutional Networks'
p452
aa(lp453
S'Extracting keywords from emails using distributed word vectors'
p454
aa(lp455
S'Fast Tree-Structured Recursive Neural Networks'
p456
aa(lp457
S'Feature Engineering on Machine Comprehension'
p458
aa(lp459
S'Finding Influencers within Fuzzy Topics on Twitter'
p460
aa(lp461
S'How well does language-based community detection work for Reddit?'
p462
aa(lp463
S'Improved Search for Explore Courses'
p464
aa(lp465
S'Language Identification from Text Documents'
p466
aa(lp467
S'Learning to Rank Comments Within Subreddit Submissions'
p468
aa(lp469
S'Machine Learning Methods for News Popularity Prediction'
p470
aa(lp471
S'Multiclass Emotion Analysis of Social Media Posts'
p472
aa(lp473
S'Named Entity Recognition and Classification using Word Vectors'
p474
aa(lp475
S'Predicting Answer Quality on Community Q&A Websites'
p476
aa(lp477
S'Predicting Yelp Star Ratings Based on Text Analysis of User Reviews'
p478
aa(lp479
S'Predicting and Evaluating the Popularity of Online News'
p480
aa(lp481
S'Predicting and Identifying Hyperlinks in Wikipedia Articles'
p482
aa(lp483
S'Prediction of Yelp Ratings Based on Reviewer Comments Segmented by Business Type'
p484
aa(lp485
S'Question Answering on the bAbI Dataset using LSTMs'
p486
aa(lp487
S'Rating the Raters: Bias Analysis on Yelp Reviews for Improved Star Rating System'
p488
aa(lp489
S'Similar language detection'
p490
aa(lp491
S'The Lowest Form of Wit: Identifying Sarcasm in Social Media'
p492
aa(lp493
S'User review sentiment classification and aggregation'
p494
aa(lp495
S'A Clustering Algorithm for Reduced Order Modeling of Shock Waves'
p496
aa(lp497
S'Analyze Rainfall Frequency and Deriving IDF Curve Automatically'
p498
aa(lp499
S'Data-Driven Discovery and Design of Superionic Lithium Conductors for High Performance Solid-State Lithium Ion Batteries'
p500
aa(lp501
S'Data-driven fatigue crack evaluation based on wave propagation data'
p502
aa(lp503
S'Can Machines Learn Genres'
p504
aa(lp505
S'Identifying Gender From  Facial Features'
p506
aa(lp507
S'Equation to LaTeX'
p508
aa(lp509
S'Intensity prediction using DYFI'
p510
aa(lp511
S'Artificial Intelligence on the Final Frontier - Using Machine Learning to Find New Earths'
p512
aa(lp513
S'Life Expectancy Post Thoracic Surgery'
p514
aa(lp515
S'Making Sense of the Mayhem- Machine Learning and March Madness'
p516
aa(lp517
S'Better Reading Levels through Machine Learning'
p518
aa(lp519
S'What are People Saying about Net Neutrality'
p520
aa(lp521
S'Bird Species Identification from an Image'
p522
aa(lp523
S'Stay Alert'
p524
aa(lp525
S'A bigram extension to word vector representation'
p526
aa(lp527
S"Mining for Confusion - Classifying Affect in MOOC Learners' Discussion Forum Posts"
p528
aa(lp529
S'Cardiac Arrhythmias Patients'
p530
aa(lp531
S'Prediction of Average and Perceived Polarity in Online Journalism'
p532
aa(lp533
S'Cardiac Dysrhythmia Detection with GPU-Accelerated Neural Networks'
p534
aa(lp535
S'Nicolas Sanchez Ruck Those Stats!'
p536
aa(lp537
S'Classifying Wikipedia People Into Occupations'
p538
aa(lp539
S'Classification of Soil Contamination'
p540
aa(lp541
S'Automated Essay Grading'
p542
aa(lp543
S'Relative and absolute equity return prediction using supervised learning'
p544
aa(lp545
S'Seizure Prediction from Intracranial EEG Recordings'
p546
aa(lp547
S'Predicting Seizure Onset with Intracranial Electroencephalogram(EEG) Data'
p548
aa(lp549
S'Classifying Complex Legal Documents'
p550
aa(lp551
S'Machine Learning Applied to the Detection of Retinal Blood Vessels'
p552
aa(lp553
S'Survival Outcome Prediction for Cancer Patients'
p554
aa(lp555
S'Predicting Cellular Link Failures to Improve User Experience on Smartphones'
p556
aa(lp557
S'Yelp Personalized Reviews'
p558
aa(lp559
S'KMeansSL'
p560
aa(lp561
S'Strength in numbers_ Modelling the impact of businesses on each other'
p562
aa(lp563
S'Correlation Based Multi-Label Classification'
p564
aa(lp565
S'Landmark Recognition Using Machine Learning'
p566
aa(lp567
S'CarveML an application of machine learning to file fragment classification'
p568
aa(lp569
S'rClassifier'
p570
aa(lp571
S'Using Vector Representations to Augment Sentiment Analysis Training Data'
p572
aa(lp573
S'What Project Should I Choose'
p574
aa(lp575
S'Analyzing Vocal Patterns to Determine Emotion'
p576
aa(lp577
S'Predicting the Commercial Success of Songs Based on Lyrics and Other Metrics'
p578
aa(lp579
S'Application Of Machine Learning To Aircraft Conceptual Design'
p580
aa(lp581
S'Extracting Word Relationships from Unstructured Data'
p582
aa(lp583
S'Machine Learning for Predicting Delayed Onset Trauma Following Ischemic Stroke'
p584
aa(lp585
S'Classifying Online User Behavior Using Contextual Data'
p586
aa(lp587
S'Real Time Flight Path Optimization Under Constraints Using Surrogate Flutter Function'
p588
aa(lp589
S'Real-Time Dense Map Matching with Naive Hidden Markov Models Delay versus Accuracy'
p590
aa(lp591
S'Prediction Function from Sequence in Venom Peptide Families'
p592
aa(lp593
S'Restaurant Recommendation System'
p594
aa(lp595
S'Home Electricity Load Forecasting'
p596
aa(lp597
S'Learning Dota 2 Team Compositions'
p598
aa(lp599
S'Applying Deep Learning to derive insights about non-coding regions of the genome'
p600
aa(lp601
S'Classification of Higgs Jets as Decay Products of a Randall-Sundrum Graviton at the ATLAS Experiment'
p602
aa(lp603
S'SemenFertilityPrediction'
p604
aa(lp605
S'Sentiment Analysis Using Semi-Supervised Recursive Autoencoders and Support Vector Machines'
p606
aa(lp607
S'Classifying Syllables in Imagined Speech using EEG Data'
p608
aa(lp609
S'Abraham Starosta-Typeguess'
p610
aa(lp611
S'Predicting Usefulness of Yelp Reviews'
p612
aa(lp613
S'Predicting Soccer Results in the English Premier League'
p614
aa(lp615
S'Detecting Heart Abnormality using ECG with CART'
p616
aa(lp617
S'Down and Dirty with Data'
p618
aa(lp619
S'Hierarchical Classification of Amazon Products'
p620
aa(lp621
S'Predicting high-risk countries for political instability and conflict'
p622
aa(lp623
S'Machine Learning Implementation in live-cell tracking'
p624
aa(lp625
S'Any Given Sunday'
p626
aa(lp627
S'P300 Error Detection'
p628
aa(lp629
S'Automated Canvas Analysis for Painting Conservation'
p630
aa(lp631
S'Office Appliance Classification'
p632
aa(lp633
S'Sentiment Analysis on Movie Reviews'
p634
aa(lp635
S'Predicting Mobile Application Success'
p636
aa(lp637
S'Modeling Activity Recognition Using Physiological Data Collected from Wearable Technology'
p638
aa(lp639
S'Neural Network Joint Language Model'
p640
aa(lp641
S'Yelp Recommendation System Using Advanced Collaborative Filtering'
p642
aa(lp643
S'Prediction of Yelp Review Star Rating using Sentiment Analysis'
p644
aa(lp645
S'Classification of Bad Accounts in Credit Card Industry'
p646
aa(lp647
S'Classification Of Musical Playing Styles'
p648
aa(lp649
S'Email Filtering By Response Required'
p650
aa(lp651
S'Forecasting Utilization in City Bike-Share Program'
p652
aa(lp653
S'Recommender'
p654
aa(lp655
S'Predicting Cell Type-Specific Chromatin States from Genetic Regulatory Networks'
p656
aa(lp657
S'Pose Estimation Based on 3D Models'
p658
aa(lp659
S'Visual Localization and POMDP for Autonomous Indoor Navigation'
p660
aa(lp661
S'Contours and Kernels-The Art of Sketching'
p662
aa(lp663
S'Indoor Positioning System Using Wifi Fingerprint'
p664
aa(lp665
S'Predicting air pollution level in a specific city'
p666
aa(lp667
S'Prediction of Transcription Factors that Regulate Common Binding Motifs'
p668
aa(lp669
S'Multi-class motif discovery in keratinocyte differentiation'
p670
aa(lp671
S'Defensive Unit Performance Analysis'
p672
aa(lp673
S'Diagnosing Malignant versus Benign Breast Tumors via Machine Learning Techniques in High Dimensions'
p674
aa(lp675
S'Hacking the Hivemind'
p676
aa(lp677
S"Diagnosing Parkinson's from Gait"
p678
aa(lp679
S'Implementing Machine Learning Algorithms on GPUs for Real-Time Traffic Sign Classification'
p680
aa(lp681
S'Vignette'
p682
aa(lp683
S'Machine Learning In JavaScript'
p684
aa(lp685
S'Searching for exoplanets in the Kepler public data'
p686
aa(lp687
S'Model Clustering via Group Lasso'
p688
aa(lp689
S'Improving Positron Emission Tomography Imaging with Machine Learning'
p690
aa(lp691
S'Algorithmic Trading of Futures via Machine Learning'
p692
aa(lp693
S'Topic based comments exploration for online articles'
p694
aa(lp695
S'Personal Legal Counselor and Interpreter of the Law via Machine Learning'
p696
aa(lp697
S'Personalized Web Search'
p698
aa(lp699
S'Detecting Ads in a Machine Learning Approach'
p700
aa(lp701
S'Predicting Mitochondrial tRNA Modification'
p702
aa(lp703
S'Collaborative Neighborhoods'
p704
aa(lp705
S'Estimation of Causal Effects from Observational Study of Job Training Program'
p706
aa(lp707
S'Deep Leraning Architecture for Univariate Time Series Forecasting'
p708
aa(lp709
S'Solomon'
p710
aa(lp711
S'Automatic detection of nanoparticles in tissue sections'
p712
aa(lp713
S'Implementation of Deep Convolutional NeuralNet on a DSP'
p714
aa(lp715
S'Evergreen or Ephemeral - Predicting Webpage Longevity Through Relevancy Features'
p716
aa(lp717
S'Mac Malware Detection'
p718
aa(lp719
S'Extractive Fiction Summarization Using Sentence Significance Scoring Models'
p720
aa(lp721
S'Identifying And Predicting Market Reactions To Information Shocks In Commodity Markets'
p722
aa(lp723
S'An EM-Derived Approach to Blind HRTF Estimation'
p724
aa(lp725
S'The Many Dimensions of Net Neutrality'
p726
aa(lp727
S'Learning To Predict Dental Caries For Preschool Children'
p728
aa(lp729
S'Information based feature selection'
p730
aa(lp731
S'Identifying Elephant Vocalizations'
p732
aa(lp733
S'Predicting Protein Fragment Binding'
p734
aa(lp735
S'Bike Share Usage Prediction in London'
p736
aa(lp737
S'Localized Explicit Semantic Analysis'
p738
aa(lp739
S'Robo Brain Massive Knowledge Base for Robots'
p740
aa(lp741
S'Understanding Music Genre Similarity'
p742
aa(lp743
S'Correlated Feature Selection for Single-Cell Phenotyping'
p744
aa(lp745
S'Activity Recognition in Construction Sites Using 3D Accelerometer and Gyrometer'
p746
aa(lp747
S'Event-based stock market prediction'
p748
aa(lp749
S'Recommendation Based On User Experience'
p750
aa(lp751
S'Spectrum Adaptation in Multicarrier Interference Channels'
p752
aa(lp753
S'Exploring Potential for Machine Learning on Data About K-12 Teacher Professional Development'
p754
aa(lp755
S'Player Behavior and Optimal Team Compositions for Online Multiplayer Games'
p756
aa(lp757
S'Algorithmic Trading Strategy Based On Massive Data Mining'
p758
aa(lp759
S'Face Detection And Recognition Of Drawn Characters'
p760
aa(lp761
S'Gene Expression Analysis Of HCMV Latent Infection'
p762
aa(lp763
S'A New Kalman Filter Method'
p764
aa(lp765
S'Using Tweets for single stock price prediction'
p766
aa(lp767
S'Classification of Human Posture and Movement Using Accelerometer Data'
p768
aa(lp769
S'Nai\xcc\x88ve Bayes Classifier And Profitability of Options Gamma Trading'
p770
aa(lp771
S'Vector-based Sentiment Analysis of Movie Reviews'
p772
aa(lp773
S'A General-Purpose Sentence-Level Nonsense Detector'
p774
aa(lp775
S'Characterizing Genetic Variation in Three Southeast Asian Populations'
p776
aa(lp777
S'Machine Learning for the Smart Grid'
p778
aa(lp779
S'Predicting Africa Soil Properties'
p780
aa(lp781
S'Automated Bitcoin Trading via Machine Learning Algorithms'
p782
aa(lp783
S'SkatBot'
p784
aa(lp785
S'Tradeshift Text Classification'
p786
aa(lp787
S'New York City Bike Share'
p788
aa(lp789
S'Predicting Seizure Onset in Epileptic Patients Using Intercranial EEG Recordings'
p790
aa(lp791
S'Predicting Foster Care Exit'
p792
aa(lp793
S'Yelp Recommendation System'
p794
aa(lp795
S'Predicting National Basketball Association Game Winners'
p796
aa(lp797
S'Predicting Yelp Ratings From Business and User Characteristics'
p798
aa(lp799
S'Predicting Popularity of Pornography Videos'
p800
aa(lp801
S'Accurate Campaign Targeting Using Classification Algorithms'
p802
aa(lp803
S'Forecasting Bike Rental Demand'
p804
aa(lp805
S'Predicting User Following Behavior On Tencent Weibo'
p806
aa(lp807
S'Improving Taxi Revenue With Reinforcement Learning'
p808
aa(lp809
S'Learning Facial Expressions From an Image'
p810
aa(lp811
S'All Your Base Are Belong To Us English Texts Written by Non-Native Speakers'
p812
aa(lp813
S'Identifying Regions High Turbidity'
p814
aa(lp815
S'A Comparison of Classification Methods for Expression Quantitative Trait Loci'
p816
aa(lp817
S'Predicting Mobile Users Future Location'
p818
aa(lp819
S'Machine Learning Madness'
p820
aa(lp821
S'Semi-Supervised Learning For Sentiment Analysis'
p822
aa(lp823
S'Legal Issue Spotting'
p824
aa(lp825
S'A novel way to Soccer Match Prediction'
p826
aa(lp827
S'Morphological Galaxy Classification'
p828
aa(lp829
S'Predicting Helpfulness Ratings of Amazon Product Reviews'
p830
aa(lp831
S'Predicting Course Completions For Online Courses'
p832
aa(lp833
S'An Adaptive System For Standardized Test Preparation'
p834
aa(lp835
S'Single Molecule Biophysics Machine Learning For Automated Data Processing'
p836
aa(lp837
S'Understanding Comments Submitted to FCC on Net Neutrality'
p838
aa(lp839
S'Direct Data-Driven Methods for Decision Making under Uncertainty'
p840
aa(lp841
S'From Food To Wine'
p842
aa(lp843
S'Classifying Legal Questions into Topic Areas Using Machine Learning'
p844
aa(lp845
S'Predicting Hit Songs with MIDI Musical Features'
p846
aa(lp847
S'Machine Learning Methods for Biological Data Curation'
p848
aa(lp849
S'Classifying Forest Cover Type using Cartographic Features'
p850
aa(lp851
S'Peer Lending Risk Predictor'
p852
aa(lp853
S'Learning Distributed Representations of Phrases'
p854
aa(lp855
S'Estimation Of Word Representations Using Recurrent Neural Networks And Its Application In Generating Business Fingerprints'
p856
aa(lp857
S'Gender Identification by Voice'
p858
aa(lp859
S'Applications Of Machine Learning To Predict Yelp Ratings'
p860
aa(lp861
S'Methodology for Sparse Classification Learning Arrhythmia'
p862
aa(lp863
S'Predicting March Madness'
p864
aa(lp865
S'Net Neutrality Language Analysis'
p866
aa(lp867
S'Characterizing Atrial Fibrillation Burden for Stroke Prevention'
p868
aa(lp869
S'Predict Seizures in Intracranial EEG Recordings'
p870
aa(lp871
S'Automated Music Track Generation'
p872
aa(lp873
S'Characterizing Overlapping Galaxies'
p874
aa(lp875
S'Understanding Player Positions in the NBA'
p876
aa(lp877
S'Cross-Domain Product Classification with Deep Learning'
p878
aa(lp879
S'Predicting Heart Attacks'
p880
aa(lp881
S'Prediction of Bike Sharing Demand for Casual and Registered Users'
p882
aa(lp883
S'Classification Of Arrhythmia Using ECG Data'
p884
aa(lp885
S'What Can You Learn From Accelerometer Data'
p886
aa(lp887
S'Speaker Recognition for Multi-Source Single-Channel Recordings'
p888
aa(lp889
S'Prediction of consumer credit risk'
p890
aa(lp891
S'Machine Learning for Network Intrusion Detection'
p892
aa(lp893
S'Predicting Paper Counts in the Biological Sciences'
p894
aa(lp895
S'Prediction of Price Increase for MTG Cards'
p896
aa(lp897
S'Twitter Classification into the Amazon Browse Node Hierarchy'
p898
aa(lp899
S'Determining Mood From Facial Expressions'
p900
aa(lp901
S'Visualizing Personalized Cancer Risk Prediction'
p902
aa(lp903
S'Predicting the Total Number of Points Scored in NFL Games'
p904
aa(lp905
S'Short Term Power Forecasting Of Solar PV Systems Using Machine Learning Techniques'
p906
aa(lp907
S'Star-Galaxy Separation in the Era of Precision Cosmology'
p908
aa(lp909
S'Artist Attribution via Song Lyrics'
p910
aa(lp911
S'Accelerometer Gesture Recognition'
p912
aa(lp913
S'Arrythmia Classification for Heart Attack Prediction'
p914
aa(lp915
S'#ML#NLP-Autonomous Tagging Of Stack Overflow Posts'
p916
aa(lp917
S'Scheduling Tasks Under Constraints'
p918
aa(lp919
S'Classification Of Beatles Authorship'
p920
aa(lp921
S'Classification of Accents of English Speakers by Native Language'
p922
aa(lp923
S'Exposing commercial value in social networks matching online communities and businesses'
p924
aa(lp925
S'Hacking the genome'
p926
aa(lp927
S'How Hot Will It Get Modeling Scientific Discourse About Literature'
p928
aa(lp929
S'Permeability Prediction of 3-D Binary Segmented Images Using Neural Networks'
p930
aa(lp931
S'Automated Identification of Artist Given Unknown Paintings and Quantification of Artistic Style'
p932
aa(lp933
S'Predicting Lecture Video Complexity'
p934
aa(lp935
S'Result Prediction of Wikipedia Administrator Elections based ondNetwork Features'
p936
aa(lp937
S'Predicting The Treatment Status'
p938
aa(lp939
S'Error Detection based on neural signals'
p940
aa(lp941
S'Speech Similarity'
p942
aa(lp943
S'Data-Driven Modeling and Control of an Autonomous Race Car'
p944
aa(lp945
S'Predicting the Diagnosis of Type 2 Diabetes Using Electronic Medical Records'
p946
aa(lp947
S'A Novel Approach to Predicting the Results of NBA Matches'
p948
aa(lp949
S'Automatically Generating Musical Playlists'
p950
aa(lp951
S'Solar Flare Prediction'
p952
aa(lp953
S'Application of machine learning techniques for well pad identification inathe Bakken oil fielda'
p954
aa(lp955
S'Anomaly Detection in Bitcoin Network Using Unsupervised Learning Methods'
p956
aa(lp957
S'Two-step Semi-supervised Approach for Music Structural Classificiation'
p958
aa(lp959
S'Domain specific sentiment analysis using cross-domain data'
p960
aa(lp961
S'Instrumental Solo Generator'
p962
aa(lp963
S'Cross-Domain Text Understanding in Online SocialData'
p964
aa(lp965
S'From Paragraphs to Vectors and Back Again'
p966
aa(lp967
S'HandwritingRecognition'
p968
aa(lp969
S'Chemical Identification with Chemical Sensor Arrays'
p970
aa(lp971
S'Genre Classification Using Graph Representations of Music'
p972
aa(lp973
S'Collaborative Filtering Recommender Systems'
p974
aa(lp975
S'Detecting The Direction Of Sound With A Compact Microphone Array'
p976
aa(lp977
S'Finding Undervalued Stocks With Machine Learning'
p978
aa(lp979
S'Multilevel Local Search Algorithms for Modularity Clustering'
p980
aa(lp981
S'Automated Detection and Classification of Cardiac Arrhythmias'
p982
aa(lp983
S'Predicting Kidney Cancer Survival From Genomic Data'
p984
aa(lp985
S'Multiclass Sentiment Analysis of Movie Reviews'
p986
aa(lp987
S'Classification and Regression Approaches to Predicting US Senate Elections'
p988
aa(lp989
S'Learning from Quantified Self Data'
p990
aa(lp991
S'Predict Influencers in the Social Network'
p992
aa(lp993
S'Bias Detector'
p994
aa(lp995
S'Constructing Personal Networks Through Communication History'
p996
aa(lp997
S'Modeling Protein Interactions Using Bayesian Networks'
p998
aa(lp999
S"Topic Analysis of the FCC's Public Comments on Net Neutrality"
p1000
aa(lp1001
S'Predicting Hospital Readmissions'
p1002
aa(lp1003
S'Analyzing Positional Play in Chess Using Machine Learning'
p1004
aa(lp1005
S"Yelp Restaurants' Open Hours"
p1006
aa(lp1007
S'Identifying Arrhythmia from Electrocardiogram Data'
p1008
aa(lp1009
S'Diagnosing and Segmenting Brain Tumors and Phenotypes using MRI Scans'
p1010
aa(lp1011
S'Exploring the Genetic Basis of Congenital Heart Defects'
p1012
aa(lp1013
S'Attribution of Contested and Anonymous Ancient Greek Works'
p1014
aa(lp1015
S'Object Detection for Semantic SLAM using Convolutional Neural Networks'
p1016
aa(lp1017
S'Sentiment as a Predictor of Wikipedia Editor Activity'
p1018
aa(lp1019
S'Blowing Up The Twittersphere- Predicting the Optimal Time to Tweet'
p1020
aa(lp1021
S'Evergreen Classification_ Exploring New Features'
p1022
aa(lp1023
S'Detecting Lane Departures Using Weak Visual Features'
p1024
aa(lp1025
S'Re-clustering of Constellations through Machine Learning'
p1026
aa(lp1027
S'Application of Neural Network In Handwriting Recognition'
p1028
aa(lp1029
S'Recognition and Classification of Fast Food Images'
p1030
aa(lp1031
S'Reduced Order Greenhouse Gas Flaring Estimation'
p1032
aa(lp1033
S'Blood Pressure Detection from PPG'
p1034
aa(lp1035
S'Predicting Low Voltage Events on Rural Micro-Grids in Tanzania'
p1036
aa(lp1037
S'Amazon Employee Access Control System_Updated_Version'
p1038
aa(lp1039
S'Prediction Onset Epileptic'
p1040
aa(lp1041
S'Evaluating Pinch Quality of Underactuated Robotic Hands'
p1042
aa(lp1043
S'Reinforcement Learning With Deeping Learning in Pacman'
p1044
aa(lp1045
S'Language identification and accent variation detection in spoken language recordings'
p1046
aa(lp1047
S'Enhancing Cortana User Experience Using Machine Learning'
p1048
aa(lp1049
S'Who Matters'
p1050
aa(lp1051
S'Predicting Heart Attacks'
p1052
aa(lp1053
S'Predicting Seizures in Intracranial EEG Recordings'
p1054
aa(lp1055
S'Structural Health Monitoring in Extreme Events from Machine Learning Perspective'
p1056
aa(lp1057
S'On-line Kernel Learning for Active Sensor Networks'
p1058
aa(lp1059
S'ECommerce Sales Prediction Using Listing Keywords'
p1060
aa.