(lp0
S'Design of Bodyfat Measurement System based on the Android Platform\r'
p1
a(lp2
F0.4873299143395138
aF0.32850800931681046
aF0.2987750455102138
aF0.2790704033241412
aF0.20560102750308173
aF0.1837587984917912
aF0.15842215207429605
aF0.14246135485029576
aF0.11890275196527665
aF0.10268874033364803
aa.(lp0
S'The Development of Android Software and Kernel Files by Using Example of Wi-Fi Adaptor Adaptor Adaptor \r'
p1
a(lp2
F0.20433042360896297
aF0.17002308464952548
aF0.11517480008851272
aF0.11072469601979815
aF0.09457727345675339
aF0.08412585083071752
aF0.08363649206023213
aF0.06814489269925868
aF0.0664062766792645
aF0.06496843440078567
aa.(lp0
S'Introducing Object Oriented Programming to Engineering Technology Students with an App Development Tool\r'
p1
a(lp2
F0.13315657260393152
aF0.07418543145167254
aF0.06797680346807537
aF0.06665760337447327
aF0.05554800281206106
aF0.05340423518781599
aF0.05285835527823101
aF0.052070873532337886
aF0.051494786123610706
aF0.04857971587539484
aa.(lp0
S'A Mobile-Based Computer Controller via Android Technology\r'
p1
a(lp2
F1.2859897701807312
aF0.6332740999206988
aF0.44104596689675457
aF0.3109909901744252
aF0.2685727252405426
aF0.25500299849807206
aF0.2143316283634552
aF0.20657447671154477
aF0.19847068510353955
aF0.18911614267363694
aa.(lp0
S'AdRob: Examining the Landscape and Impact of Android Application Plagiarism\r'
p1
a(lp2
F1.2816862410414513
aF0.3693899938177504
aF0.3322856468968104
aF0.32185479685685525
aF0.3172500972634706
aF0.2814296519385829
aF0.2748902097319979
aF0.2616978298746199
aF0.2553683078993165
aF0.24935360941077997
aa.(lp0
S'Enforcing Least Privilege with Android Permissions in Mobile App Development\r'
p1
a(lp2
F0.8378873080556862
aF0.623234199101491
aF0.5610588158182069
aF0.5595784495495573
aF0.5197902648704475
aF0.43670804925163864
aF0.4026596250726973
aF0.39525779372944914
aF0.31848633963664164
aF0.31087691641642073
aa.(lp0
S'Offshore in Mobile App Development\r'
p1
a(lp2
F0.4236866844624055
aF0.18316649290269224
aF0.152171353195361
aF0.1430988225802283
aF0.14041894471253816
aF0.13879391387561557
aF0.13514144245783621
aF0.13415987288328218
aF0.13148897104005686
aF0.13148897104005686
aa.(lp0
S'iPhone App Development: How to Thrive in the Flooded App MarketUsing iPads and app development to foster creativity in the math classroom \r'
p1
a(lp2
F0.15400202017170103
aF0.11396867278801763
aF0.082334393578915
aF0.08069623850417669
aF0.07689689481196157
aF0.0696475222593441
aF0.044321150528673525
aF0.04410156939119951
aF0.03876122976443114
aF0.037989557596005884
aa.(lp0
S'App Development and Store Publication as a Way to Attract and Retain Students Majoring in Technology Disciplines\r'
p1
a(lp2
F1.0279594041055136
aF0.6023279273256664
aF0.4594483376476675
aF0.3867242774287623
aF0.32196351444536275
aF0.2941748777022209
aF0.285819715392837
aF0.21449965538246757
aF0.21261522305260255
aF0.2027799714317984
aa.(lp0
S'Data-Driven Rankings: The Design and Development of the IEEE Top Programming Languages News App\r'
p1
a(lp2
F0.4794066436287949
aF0.30297262449729584
aF0.24300307020608627
aF0.20097544809164822
aF0.18531596494142388
aF0.18249075876670062
aF0.1779477278654498
aF0.17206271540860343
aF0.12214204569102032
aF0.12114291985832819
aa.(lp0
S'The Role of Jazz Improvisation in the Transformation of an Intertext\r'
p1
a(lp2
F0.44614688592567275
aF0.2738758051690315
aF0.19984061657725796
aF0.1371616696055326
aF0.13286903648675555
aF0.13244113485398984
aF0.12186151602522075
aF0.11302811006975903
aF0.108680875067076
aF0.10448654710659651
aa.(lp0
S'The Design for the Universal Lift Monitoring and Control System based on Android Framework\r'
p1
a(lp2
F1.015300141009679
aF0.6962901369672791
aF0.6692264191667575
aF0.5932477768456564
aF0.5490845408658216
aF0.4500991845723325
aF0.3495752200184217
aF0.32061071461556945
aF0.2804806752652945
aF0.22054087107316478
aa.(lp0
S'Design and development of an acoustic distance finder in Android SDK and MATLAB\r'
p1
a(lp2
F2.635928518251323
aF0.9459217371413225
aF0.4807896584334021
aF0.3540735715654777
aF0.33639659668263266
aF0.29344277231853627
aF0.2416546271454644
aF0.2178647933850301
aF0.21451038103032238
aF0.21262931709325653
aa.(lp0
S'Styding the Relationship between Social Networking with the First Grade Intermediate Students\r'
p1
a(lp2
F0.6704970692373489
aF0.375492627413346
aF0.24689926186083025
aF0.24004477434413535
aF0.20262195115377246
aF0.18848553595699763
aF0.18340486942268316
aF0.138880834796717
aF0.13373710017461637
aF0.13335820796896408
aa.(lp0
S'Research of Multimedia Applications based on Android Platform\r'
p1
a(lp2
F0.33558924918921385
aF0.27823828077856
aF0.2257290765503147
aF0.2257290765503147
aF0.18470416040646653
aF0.1257718570703447
aF0.11446455011104967
aF0.11115286415889605
aF0.10668160899294844
aF0.10070989569167887
aa.(lp0
S'Research on Application based on Android System\r'
p1
a(lp2
F0.2665799920467487
aF0.20855921295992658
aF0.19213714149985306
aF0.17663935167197675
aF0.14193453155883407
aF0.12176646696628984
aF0.11365791136164445
aF0.09665514678149364
aF0.09336452819929754
aF0.09074571224339516
aa.(lp0
S'Smart Home System Using Android Mobile Devices\r'
p1
a(lp2
F1.0075709134818962
aF0.8115851221360887
aF0.513007736493427
aF0.34354992494974523
aF0.3136268907319561
aF0.3106499029669723
aF0.27504726621761466
aF0.2423711565830594
aF0.23841126903905893
aF0.23780951134595085
aa.(lp0
S'ON THE TAXI INTELLIGENT CALL SYSTEM BASED ON ANDROID PLATFORM\r'
p1
a(lp2
F0.31463549033794885
aF0.22699615809857968
aF0.19076717136318352
aF0.12408099919457906
aF0.10284315949204449
aF0.10284315949204449
aF0.08815127956460957
aF0.076112279255592
aF0.07484405710350195
aF0.07337198898583981
aa.(lp0
S'Design of Android based Media Player\r'
p1
a(lp2
F1.3388097734588775
aF0.605486432964562
aF0.5924109187274007
aF0.5350288628186904
aF0.4782552626218246
aF0.47211367389381914
aF0.46832030057457835
aF0.4355978773652365
aF0.3903906054286558
aF0.30596313184727325
aa.(lp0
S'Effective Inter-Component Communication Mapping in Android with Epicc: An Essential Step Towards Holistic Security Analysis\r'
p1
a(lp2
F0.8732457526183918
aF0.3931134545149376
aF0.3579806272813589
aF0.3413401288615508
aF0.28807317498072926
aF0.2824521573663419
aF0.17455087232607447
aF0.1716180616906472
aF0.16548884520169552
aF0.1569880004707221
aa.(lp0
S'Prototype Development of an App for Choong-Jang-Ro Activation based on Augmented Reality\r'
p1
a(lp2
F0.2584244566732099
aF0.2343115754981485
aF0.21952016748651526
aF0.14367121050092999
aF0.14090632902544747
aF0.1185024059990636
aF0.0965705867098758
aF0.09315605538729502
aF0.08124712957413045
aF0.07336339379336339
aa.(lp0
S'Attribute-Level Encryption of Data in Public Android Databases \r'
p1
a(lp2
F1.7793479998974495
aF1.2918353296709533
aF0.6704482596669014
aF0.6472149041338898
aF0.5424629366795584
aF0.5277290756784025
aF0.5238490123817303
aF0.3566003774612527
aF0.35181938378560174
aF0.3485003329951715
aa.(lp0
S'Flow Permissions for Android\r'
p1
a(lp2
F1.086012679848874
aF0.8391346312538305
aF0.7403643014050079
aF0.45450580230243776
aF0.4483428586538762
aF0.42673856679199945
aF0.3676134768342052
aF0.34197542681276666
aF0.3360988836301506
aF0.30105529027106814
aa.(lp0
S'Development of Android App for Smooth Multimedia Streaming Service via Portable Media File Format\r'
p1
a(lp2
F0.8647779139694282
aF0.5324857636099538
aF0.4354149092987272
aF0.40627034168330134
aF0.40627034168330134
aF0.3491080761997159
aF0.3160227978874646
aF0.24191020275585537
aF0.2130021501179828
aF0.20313517084165067
aa.(lp0
S'On the CCA (in)security of MTProto\r'
p1
a(lp2
F0.7065334084063131
aF0.6120725935589609
aF0.3697072209985051
aF0.35027291857431625
aF0.28862502350635677
aF0.2797015879704973
aF0.25674112569340635
aF0.23300861785993848
aF0.20124458628455538
aF0.14719824539755297
aa.(lp0
S'Mobile App Development: A Cross-Discipline Team-Based Approach to Student and Faculty Learning\r'
p1
a(lp2
F0.595366831769623
aF0.3824065230004921
aF0.29980624654529386
aF0.2957804427175146
aF0.2187599022993023
aF0.195207360083956
aF0.15442992728724508
aF0.14983392878588161
aF0.1489098463539528
aF0.14485020900502962
aa.(lp0
S'An Approach of Integrating Communication Services in Applications for Android-Based Digital TV Receivers \r'
p1
a(lp2
F0.22980230016346462
aF0.2043517767684582
aF0.1429732951894832
aF0.09566425482748749
aF0.08174071070738329
aF0.08174071070738329
aF0.07929972708241557
aF0.07862133972203253
aF0.0647051112120188
aF0.06258624234126718
aa.(lp0
S'Influence of Online Chat App on Personal Development of Engineering Students\r'
p1
a(lp2
F1.191748072915302
aF0.6048479670709946
aF0.27218158518194757
aF0.2264640628014264
aF0.15350409381082444
aF0.129771517591473
aF0.12779816159682156
aF0.12354394182979608
aF0.11295148877647185
aF0.10785050433622642
aa.(lp0
S'Revisiting Prior Empirical Findings For Mobile Apps: An Empirical Case Study on the 15 Most Popular Open-Source Android Apps\r'
p1
a(lp2
F0.5212091054418194
aF0.5135215117403862
aF0.3482132969733465
aF0.31933722171055046
aF0.24467208795377743
aF0.2169695505345336
aF0.2103963361416519
aF0.2048492621927031
aF0.2024092173695346
aF0.20172471742797224
aa.(lp0
S'DroidAnalytics: A Signature Based Analytic System to Collect, Extract, Analyze and Associate Android Malware\r'
p1
a(lp2
F0.28862055069359566
aF0.2187589679832213
aF0.1456846589215292
aF0.13213419015542102
aF0.13200108540167274
aF0.10735554582620171
aF0.10240246207979106
aF0.0993538254002245
aF0.09860237021238048
aF0.0917757914866052
aa.(lp0
S'Development of Smart Multiplatform Game App using UNITY3D Engine for CPR Education\r'
p1
a(lp2
F0.65967421089142
aF0.21585563534385213
aF0.17300718419222438
aF0.13974346198294305
aF0.12174579628341714
aF0.10270900121743307
aF0.10209117067285822
aF0.09343616298271282
aF0.08685975367200102
aF0.08654202913645709
aa.(lp0
S'Android Based Sales CRM Geo Tracking System \r'
p1
a(lp2
F0.7453107870355181
aF0.2685561407789796
aF0.2637089952674266
aF0.2003840329171149
aF0.16900824182529384
aF0.15520683187204837
aF0.15444648919350792
aF0.1489405617466881
aF0.14847547033712719
aF0.13449498733964518
aa.(lp0
S'Development of an Indoor-Outdoor Positioning Android App for Anapji Tourist Guides\r'
p1
a(lp2
F1.0954783059010564
aF0.8266631437575428
aF0.6035989115381751
aF0.6008386945079509
aF0.5897400204789497
aF0.5416458120305696
aF0.4635041357632764
aF0.44427081542747543
aF0.4122138908065587
aF0.4023992743587835
aa.(lp0
S'Engineering Economics Jeopardy!Mobile App Development Process and Student Satisfaction\r'
p1
a(lp2
F0.5724513905325683
aF0.558862721976224
aF0.3759680650761658
aF0.3513169852478385
aF0.30655934007490543
aF0.25577557471402673
aF0.21131629175320232
aF0.18066532868884452
aF0.1740956949446198
aF0.16481975072129776
aa.(lp0
S'Ori-Gami An App fostering spatial competency development and spatial learning of children\r'
p1
a(lp2
F0.09936537148989805
aF0.08907287035041339
aF0.07384103609025656
aF0.054653485414708936
aF0.04801803016486159
aF0.045774634208872164
aF0.03980439889775105
aF0.03873238279212259
aF0.03726201430871177
aF0.03726201430871177
aa.(lp0
S'Inside Job: Understanding and Mitigating the Threat of External Device Mis-Bonding on Android\r'
p1
a(lp2
F0.15972398664015194
aF0.0549543600339169
aF0.049946213933924684
aF0.0493807092796665
aF0.04848763880147469
aF0.0407736722482475
aF0.03925894257020462
aF0.03808101105570215
aF0.03677942015373316
aF0.034226568565746844
aa.(lp0
S'VEHICLE DETECTION USING ANDROID SMARTPHONES\r'
p1
a(lp2
F0.3451083203404937
aF0.20917252778042944
aF0.18843185034729523
aF0.1760427355364707
aF0.163835512353911
aF0.1491177814652922
aF0.1220173078719172
aF0.11041105860534578
aF0.10222352607353319
aF0.10115105152537152
aa.(lp0
S'Review Paper On CarPooling Using Android Operating System-A Step Towards Green Environment\r'
p1
a(lp2
F0.4323497088697584
aF0.42894673604888706
aF0.4153823393933393
aF0.2877074970181396
aF0.2658370096424528
aF0.15280762564580816
aF0.13699020227034409
aF0.11844684844386578
aF0.11633096662067975
aF0.1142748192061459
aa.(lp0
S'Features and Techniques for Advance Business Card System Based on Android Mobile Augmented Reality\r'
p1
a(lp2
F1.447336840982958
aF0.9308151430856941
aF0.772496579835946
aF0.6757113281564644
aF0.675252974684779
aF0.6031857150824443
aF0.5649456070751323
aF0.48769341109534114
aF0.41967387954152685
aF0.40353257648223734
aa.(lp0
S'Using iPads and app development to foster creativity in the math classroom\r'
p1
a(lp2
F0.2609777984649287
aF0.1990070522137055
aF0.1635754636009354
aF0.15391838430364171
aF0.11828683555325498
aF0.10891727148765011
aF0.08561483240243747
aF0.0791131321227807
aF0.06526345007393637
aF0.05936757357332552
aa.(lp0
S'PATIENT MONITORING SYSTEM USING ANDROID TECHNOLOGY\r'
p1
a(lp2
F0.841909733257942
aF0.6570141872916878
aF0.4263883058829943
aF0.2949725611385659
aF0.2428182823259405
aF0.24046317250378169
aF0.20823614938471818
aF0.19111002695717663
aF0.18096712982243365
aF0.18091366413070106
aa.(lp0
S'A Manual Categorization of Android App Development Issues Using Stack Overflow Posts\r'
p1
a(lp2
F0.2062857055369911
aF0.194827861772961
aF0.1911320048684958
aF0.1715604772869191
aF0.1267357419948738
aF0.12014604559512639
aF0.10135126040090366
aF0.09885926080775681
aF0.09557593219050917
aF0.0910545823229339
aa.(lp0
S'Open Source Java-based ECG analysis Software and Android app for Atrial Fibrillation Screening\r'
p1
a(lp2
F0.7585448796841312
aF0.6502444771256874
aF0.3430757762024646
aF0.3396878263272342
aF0.2508314076381644
aF0.2305920363566189
aF0.2072095740596129
aF0.20479919752451406
aF0.19623634146607882
aF0.18349303780625803
aa.(lp0
S'The Development of an Intellectual Tracking App System based on IoT and RTLS \r'
p1
a(lp2
F1.1848235896110302
aF0.5243040046279804
aF0.49337216411754425
aF0.4925190754644252
aF0.4835328332092172
aF0.4319412698665868
aF0.31759403414965925
aF0.31195758379253496
aF0.3085752886018083
aF0.30798007314488474
aa.(lp0
S'ANDROID APPLICATION WITH INTEGRATED GOOGLE MAPS\r'
p1
a(lp2
F0.19892385237542867
aF0.13893072618931146
aF0.13519288571724158
aF0.13405325783198677
aF0.1284332414313795
aF0.12005789666843718
aF0.10539572331602938
aF0.1028971742773694
aF0.0860829110214149
aF0.08111573143034494
aa.(lp0
S'Design and Implementation of Android-based Livestock Disease Forecasting System using Thermal Image\r'
p1
a(lp2
F1.0834596888472097
aF0.8219010270740136
aF0.7747825792705544
aF0.5102849471312086
aF0.44424911101031794
aF0.41436989702446203
aF0.3198303303866683
aF0.30435366276328396
aF0.30297077999346406
aF0.23349611978016707
aa.(lp0
S'Visualizing Risk by Example: Demonstrating Threats Arising From Android Apps\r'
p1
a(lp2
F0.7988614699445235
aF0.6350624364431242
aF0.5670623069660966
aF0.44413850646196007
aF0.4428127198755064
aF0.4295548540109703
aF0.39125755253993644
aF0.31361524770557253
aF0.3134607549204673
aF0.3067583234781514
aa.(lp0
S'OPTICAL CHARACTER RECOGNITION USING ANDROID\r'
p1
a(lp2
F0.39542316928882093
aF0.21135913275737658
aF0.20230286532410852
aF0.12790251221772178
aF0.12407243683333216
aF0.11843278061363524
aF0.09402035014296214
aF0.09192993065648754
aF0.09124537938335031
aF0.09023449951515067
aa.(lp0
S'Breaking Cell Phone Authentication:Vulnerabilities in AKA, IMS and Android\r'
p1
a(lp2
F0.2768854294016582
aF0.10865758935443344
aF0.10287333480185036
aF0.0993947695288004
aF0.09003057403653056
aF0.08897675489111907
aF0.08532037574384803
aF0.08164570354151461
aF0.07809589034405745
aF0.06389663755422882
aa.(lp0
S'GENDER AND MOBILE APP DEVELOPMENT AS A CAREER OF CHOICE: AN EXPLORATORY STUDY IN SOUTH AFRICA \r'
p1
a(lp2
F1.5290793813104009
aF0.8418038954683545
aF0.5404670543876212
aF0.4416009305570239
aF0.4007912783121654
aF0.3474106167737696
aF0.3215778973606346
aF0.3140939297429991
aF0.28687006453778036
aF0.25012455935129346
aa.(lp0
S'A study on the app development using sensor signals from smartphone and smart watch\r'
p1
a(lp2
F1.6966056297678866
aF0.6241408169566538
aF0.6031623579165127
aF0.5474117752676819
aF0.37799734396761153
aF0.35969325195920143
aF0.34058709451031205
aF0.310274181319419
aF0.3006611173702158
aF0.29592484624334064
aa.(lp0
S'Smart Phone App Development: A Multi-College Approach\r'
p1
a(lp2
F0.2566815174718523
aF0.2439059099622641
aF0.20892681654685655
aF0.18453409760819658
aF0.14923344039061182
aF0.11367915064000153
aF0.11308817810646782
aF0.10732022269570601
aF0.1069948563592072
aF0.08470639774389374
aa.(lp0
S'The Most Favourable Mobile Messaging Apps among IIUM Students\r'
p1
a(lp2
F0.4397368194380423
aF0.317800314710569
aF0.22982790571931067
aF0.22037287602442504
aF0.21282020881525088
aF0.19728226213411526
aF0.16788486329465535
aF0.16203842074619274
aF0.15854871344103214
aF0.15687189433587417
aa.(lp0
S'Hybrid Code Analysis versus State of the Art Android Backdoors\r'
p1
a(lp2
F0.3322513002975187
aF0.26409852110977133
aF0.25842285742287324
aF0.2577653702986638
aF0.1832613248803983
aF0.1807730573050708
aF0.17684889033844545
aF0.15596106904751206
aF0.14161954742751356
aF0.13412888978058213
aa.(lp0
S'Flexible and Fine-grained Mandatory Access Control on Android for Diverse Security and Privacy Policies\r'
p1
a(lp2
F0.5932083441627883
aF0.5758307232085813
aF0.4813154517528824
aF0.4197068595488258
aF0.41481963023708146
aF0.4025312477474641
aF0.3930116602114003
aF0.3882359065444315
aF0.3793387228720039
aF0.3190822810999933
aa.(lp0
S'Animating TTS Messages in Android using Open-Source Tools\r'
p1
a(lp2
F0.3410180704911566
aF0.322483715570435
aF0.28964146378639344
aF0.219445640921938
aF0.1916882821962748
aF0.18348248677539084
aF0.18278565233057883
aF0.1716307153372871
aF0.15372239942509816
aF0.14781689735112835
aa.(lp0
S'Insights into Layout Patterns of Mobile User Interfaces by an Automatic Analysis of Android Apps\r'
p1
a(lp2
F0.8089422317621304
aF0.527449236422874
aF0.5160594168929508
aF0.5015792855777492
aF0.4667275951027496
aF0.4609515030844385
aF0.44767575599646253
aF0.41950630214921486
aF0.4105427601934593
aF0.36922868700298894
aa.(lp0
S'Securing Embedded User Interfaces: Android and Beyond\r'
p1
a(lp2
F0.3975364320349399
aF0.3429709630902587
aF0.33595432100734535
aF0.3250069379335868
aF0.2882354283519204
aF0.26641274887649885
aF0.2293021556081881
aF0.21863693906827236
aF0.20263911425839876
aF0.18664128944852518
aa.(lp0
S'Cross-Platform Mobile App Development using HTML5 and JavaScript while leveraging the Cloud\r'
p1
a(lp2
F0.3765591783439241
aF0.2853337809962726
aF0.2527292137762258
aF0.17334112046290534
aF0.16590068978790967
aF0.16341943001391598
aF0.15631423740461528
aF0.13521858685917293
aF0.1349986595767132
aF0.09954041387274579
aa.(lp0
S'Screenmilker: How to Milk Your Android Screen for Secrets\r'
p1
a(lp2
F0.6359609055434213
aF0.5479609469724062
aF0.4665567723297628
aF0.3878919900146868
aF0.3777570650561994
aF0.33509886466480326
aF0.3239117431028303
aF0.309484055625002
aF0.29688130755460806
aF0.29529932802297265
aa.(lp0
S'AFrame: Isolating Advertisements from Mobile Applications in Android\r'
p1
a(lp2
F0.7481636523921223
aF0.400187959819428
aF0.3737927666154844
aF0.3587512379919228
aF0.3192698942743012
aF0.28903977704725003
aF0.24432428067887635
aF0.2367210737138335
aF0.21616931081377413
aF0.21166578350515383
aa.(lp0
S'Calculating Source Line Level Energy Information for Android Applications\r'
p1
a(lp2
F0.5643146686565674
aF0.41858260001537206
aF0.39444430497521876
aF0.38941039530149696
aF0.34628103078824574
aF0.3031053524219959
aF0.2780980459190285
aF0.2352418537924828
aF0.21635653560989562
aF0.2021537011767662
aa.(lp0
S'Highly Precise Taint Analysis for Android Applications\r'
p1
a(lp2
F0.4431631446788096
aF0.398578846699434
aF0.11715729537328233
aF0.10232908798187441
aF0.0990156632649943
aF0.0931912124847005
aF0.08736676170440671
aF0.084130398815924
aF0.08154231092411293
aF0.07753854877780121
aa.(lp0
S'PatchDroid: Scalable Third-Party Security Patches for Android Devices\r'
p1
a(lp2
F0.7996106982873188
aF0.3332880168723664
aF0.3169642690416718
aF0.3036184050820224
aF0.2957964922190708
aF0.24441121237306868
aF0.24227098626548654
aF0.22466081137322474
aF0.22256953010488104
aF0.1997348589058973
aa.(lp0
S'DREBIN: Efficient and Explainable Detection of Android Malware in Your Pocket\r'
p1
a(lp2
F1.2592446648478046
aF0.8344594046557177
aF0.6757277517384849
aF0.2656058953259827
aF0.25082016787339495
aF0.23305745848215756
aF0.23224493917142489
aF0.23074874554228908
aF0.22391174567436942
aF0.198257655182054
aa.(lp0
S'Table of the Gods: Development of a Multi-Touch App for Museum\r'
p1
a(lp2
F0.5577981615856022
aF0.4282192739229869
aF0.3731826256296694
aF0.3121854605383303
aF0.30523440086507986
aF0.30410283288113404
aF0.2956438263386173
aF0.2831785082411262
aF0.2646593205214696
aF0.24669153823824247
aa.(lp0
S''
p1
a(lp2
F0.5337511467362257
aF0.2329387236199778
aF0.21863736663046082
aF0.21628715251065478
aF0.18363132600899248
aF0.14478551556822702
aF0.13640956001198917
aF0.12535456858028002
aF0.11984091534353837
aF0.11947758960111471
aa.(lp0
S'Development of Mobile Movie Tracking System and App in China\r'
p1
a(lp2
F0.3810292733432729
aF0.2250889406634673
aF0.17055179586945068
aF0.12431287954332214
aF0.10829553651989195
aF0.10539107560558614
aF0.10392575784755945
aF0.09926017622107704
aF0.09728406978977182
aF0.0809439580146641
aa.(lp0
S'Kernel Level Energy-Efficient 3G Background Traffic Shaper for Android Smartphones\r'
p1
a(lp2
F1.1220471713677018
aF0.7154039964167097
aF0.5797141943809138
aF0.4852637948428048
aF0.3686637835749914
aF0.30065517910808925
aF0.2963063812612191
aF0.2808039968140377
aF0.2664181657229053
aF0.26477236183588687
aa.