(lp0
S'Research on IT Architecture of Heterogeneous Big Data'
p1
a(lp2
F3.0876460229756018
aF2.860516411477396
aF2.3756885203474902
aF1.139586828911062
aF1.0632299204915985
aF1.0566464534916504
aF0.7322420401575659
aF0.46413442349633244
aF0.4126383136245652
aF0.4098366669627135
aa.(lp0
S'Business Intelligence and Analytics: from Big Data to Big Impact'
p1
a(lp2
F1.970156478003224
aF1.7276298252196243
aF1.6715845366968034
aF1.5950514507679103
aF1.5838138439624017
aF1.563448572356446
aF1.553119777218944
aF1.4031392867034083
aF1.2738557725407158
aF1.239659194615991
aa.(lp0
S'Research on IT Architecture of Heterogeneous Big Data'
p1
a(lp2
F3.0876460229756018
aF2.860516411477396
aF2.3756885203474902
aF1.139586828911062
aF1.0632299204915985
aF1.0566464534916504
aF0.7322420401575659
aF0.46413442349633244
aF0.4126383136245652
aF0.4098366669627135
aa.(lp0
S'Business Intelligence and Analytics: from Big Data to Big Impact'
p1
a(lp2
F1.970156478003224
aF1.7276298252196243
aF1.6715845366968034
aF1.5950514507679103
aF1.5838138439624017
aF1.563448572356446
aF1.553119777218944
aF1.4031392867034083
aF1.2738557725407158
aF1.239659194615991
aa.(lp0
S'Research on IT Architecture of Heterogeneous Big Data'
p1
a(lp2
F3.0876460229756018
aF2.860516411477396
aF2.3756885203474902
aF1.139586828911062
aF1.0632299204915985
aF1.0566464534916504
aF0.7322420401575659
aF0.46413442349633244
aF0.4126383136245652
aF0.4098366669627135
aa.(lp0
S'Business Intelligence and Analytics: from Big Data to Big Impact'
p1
a(lp2
F1.970156478003224
aF1.7276298252196243
aF1.6715845366968034
aF1.5950514507679103
aF1.5838138439624017
aF1.563448572356446
aF1.553119777218944
aF1.4031392867034083
aF1.2738557725407158
aF1.239659194615991
aa.(lp0
S'An Embedding Method of Dynamic Educational Content through Big Data Analytics'
p1
a(lp2
F0.43122672151657027
aF0.2805969445825498
aF0.252104406812184
aF0.2315033496164021
aF0.18242520661215647
aF0.15653442971373113
aF0.124908062546885
aF0.12208478805517572
aF0.1157888821395231
aF0.11026749846416378
aa.(lp0
S'Big Data and Marketing Analytics in Gaming: Combining Empirical Models and Field Experimentation'
p1
a(lp2
F0.38079626924866544
aF0.26212652137799625
aF0.25304247327605234
aF0.240732402286601
aF0.2188058347966599
aF0.18700465651646883
aF0.16476190404207253
aF0.11943604738629669
aF0.11321440676580907
aF0.10175671839840615
aa.(lp0
S'Traffic Prediction and Analysis using a Big Data and Visualisation Approach'
p1
a(lp2
F3.0284910231909206
aF1.733623833917109
aF1.1456929657981285
aF0.9729743528107042
aF0.7730279963041179
aF0.6280444361217761
aF0.612999049489888
aF0.5985209628177546
aF0.5847736580425198
aF0.5711742706461822
aa.(lp0
S'A Feature-based Approach to Big Data Medical Image Analysis'
p1
a(lp2
F0.2545351045466878
aF0.19210196569561344
aF0.1200637285597584
aF0.09126261505608856
aF0.08401274589760638
aF0.07844163599237548
aF0.06833309451776218
aF0.05763058970868403
aF0.05733201532232283
aF0.057266870504439536
aa.(lp0
S'On site big data analysis system model to promote the competiveness of manufacturing enterprises'
p1
a(lp2
F0.22683027623816973
aF0.15430160773846144
aF0.12358834617069724
aF0.10813980289936008
aF0.08872342444961533
aF0.08848238323110395
aF0.08684783278459067
aF0.08663863047637102
aF0.08385133626598179
aF0.07724271635668577
aa.(lp0
S'Benchmarking Correctness of Operations in Big Data Applications'
p1
a(lp2
F1.5262863460487688
aF1.4508712215979078
aF1.3361439511176392
aF1.3220477083964095
aF1.2581739045297349
aF1.2278050859326057
aF1.2009493633215635
aF1.1498140497981393
aF1.132412845160533
aF0.7033392322529952
aa.(lp0
S'Overlapping Community Detection Over Temporal Graph Sequences'
p1
a(lp2
F0.6969252692009987
aF0.5397210591650945
aF0.536787433309599
aF0.4255583110684588
aF0.30662497552257706
aF0.30294020740234334
aF0.28996057467895875
aF0.27503181121725234
aF0.25687111367848847
aF0.2199700911357618
aa.(lp0
S'Pattern-based Data Sharing in Big Data Environments'
p1
a(lp2
F0.2624788021866793
aF0.21877642606156958
aF0.13303720110831688
aF0.12844839580448178
aF0.1074480770812405
aF0.08954006423436708
aF0.08954006423436708
aF0.08715220362500241
aF0.0839626987929356
aF0.08067275975608929
aa.(lp0
S'Some Flexible Modeling Paradigms for Analyzing Big Data'
p1
a(lp2
F0.11766646005873864
aF0.10092979775902929
aF0.09871414610294474
aF0.07561160979790998
aF0.06960675707519261
aF0.06267195767825544
aF0.06236545700511443
aF0.05916574351391372
aF0.05539152110971921
aF0.05420131332494758
aa.(lp0
S'A Study on Improvements of Electric Trading System Using Big Data '
p1
a(lp2
F1.3743363677214278
aF0.9439714149118993
aF0.8807313126712321
aF0.760180327845057
aF0.6626518204439692
aF0.638211096138574
aF0.6112644054127231
aF0.602026838296028
aF0.3760254999215464
aF0.36590769511944904
aa.(lp0
S'KNOWLEDGE CLUSTERING ON BIG DATA WITH K_MEANS ALGORITHM'
p1
a(lp2
F0.5537708588033164
aF0.5173477479360965
aF0.4614757156694304
aF0.41793262656086555
aF0.3691805725355443
aF0.3691805725355443
aF0.2768854294016582
aF0.2391654894564279
aF0.22968037160175214
aF0.20896631328043277
aa.(lp0
S'Customized Efficient Collection of Big Data for Advertising Services'
p1
a(lp2
F0.6941584903134803
aF0.44361784314735664
aF0.38083368497133957
aF0.37651598834145905
aF0.3332880168723664
aF0.30821154951858293
aF0.2769025310424738
aF0.22755526669216739
aF0.22548603688708346
aF0.22112146536386618
aa.(lp0
S'Toward Progress Indicators on Steroids for Big Data Systems'
p1
a(lp2
F3.5995105822215567
aF2.399673721481038
aa.(lp0
S'Mobile Sensing, BYOD and Big Data Analytics: New technologies for audience research in museums '
p1
a(lp2
F0.16332857790185076
aF0.08619068627947665
aF0.07538242057008496
aF0.06281868380840414
aF0.06269192476036128
aF0.05671049271524828
aF0.05244679124654453
aF0.05143337200025009
aF0.05032859860631874
aF0.050254947046723314
aa.(lp0
S'Big Data and Distributed Data Mining: An Example of Future Networks '
p1
a(lp2
F0.05436671561683815
aF0.05375456094684691
aF0.03848428869234852
aF0.038224891138636
aF0.035710729503553564
aF0.028006132332182413
aF0.02548326075909067
aF0.02548326075909067
aF0.024326130139052767
aF0.02228648204407494
aa.(lp0
S'Big Data Techniques for Wind Turbine Condition Monitoring'
p1
a(lp2
F0.4695416335254314
aF0.3280419045190153
aF0.30131649670180455
aF0.2919273099652102
aF0.2307378578347152
aF0.2280232948013656
aF0.19120253037949878
aF0.17644659716772337
aF0.17635729530642855
aF0.1710174711010242
aa.(lp0
S'Changing Engines in Midstream: A Java Stream Computational Model for Big Data Processing'
p1
a(lp2
F0.4224238359765601
aF0.17866088029667584
aF0.13158610332980808
aF0.13099152027200148
aF0.09511769473817569
aF0.08694768230512315
aF0.08542648027187504
aF0.08333198811561239
aF0.08139393905160495
aF0.08112557551639626
aa.(lp0
S'Analysis of Students\xe2\x80\x99 Movement Patterns through Big Data '
p1
a(lp2
F0.6677888517577344
aF0.3272790908351118
aF0.3212499896803313
aF0.308254251465896
aF0.27564249710206845
aF0.2596626016688567
aF0.1990706843832808
aF0.1972270144771209
aF0.16130637176872664
aF0.1560680414587736
aa.(lp0
S'Big Data: Scale Down, Scale Up, Scale Out'
p1
a(lp2
F0.37646962332733463
aF0.31932151642757167
aF0.2855724270603993
aF0.2823235308907762
aF0.20238204814033398
aF0.15404531636247665
aF0.11524580305938817
aF0.1101237673678598
aF0.10526814846681076
aF0.09899933911356158
aa.(lp0
S'Comparison of Distributed Data-Parallelization Patterns for Big Data Analysis: A Bioinformatics Case Study'
p1
a(lp2
F0.5374176855406747
aF0.21663331920392814
aF0.1944777917472477
aF0.16888306960958543
aF0.1430510959859261
aF0.12241502880343838
aF0.12052632184938634
aF0.09449341977984219
aF0.09271540764148212
aF0.09094656179104404
aa.(lp0
S'Twitter: Big data opportunities'
p1
a(lp2
F0.059881232547170704
aF0.04451334053337507
aF0.04122944123745469
aF0.028326671248511407
aF0.02526090436299083
aF0.024538814959370003
aF0.024280003927295492
aF0.021234169232550323
aF0.02018999979074664
aF0.017666249816903307
aa.(lp0
S'epiC: an Extensible and Scalable System for Processing Big Data'
p1
a(lp2
F0.2505044647113594
aF0.22777326270259693
aF0.216706243282049
aF0.15276498890827955
aF0.14746833130392414
aF0.12493275981961705
aF0.09940653361561881
aF0.09646922982151758
aF0.09562999579116666
aF0.07568986577511967
aa.(lp0
S'Big-Data-Driven Control Strategies for Complex Networks'
p1
a(lp2
F0.5142157974602224
aF0.3627343141197276
aF0.20879014287549363
aF0.18211809493382877
aF0.13926677847881025
aF0.1324508769616328
aF0.12534524611877654
aF0.11208316301485438
aF0.0942906884459942
aF0.08570263291003706
aa.(lp0
S'Causal inference from big data: Theoretical foundations and the data-fusion problem'
p1
a(lp2
F0.3529522421949768
aF0.19486656911640046
aF0.1431099041645465
aF0.07939031607184432
aF0.0657407822151761
aF0.05681281530732206
aF0.05408134874158232
aF0.05394142541586752
aF0.05201294248753221
aF0.0510927280330987
aa.(lp0
S'The Quantified Self Movement as an Alternative Big Data Practice'
p1
a(lp2
F0.2809811007335889
aF0.11531861665132938
aF0.09205474786230712
aF0.0766959002265167
aF0.07546143778242258
aF0.07190808320369643
aF0.0677644293551647
aF0.06526882902530393
aF0.05735069271464116
aF0.05357857179883264
aa.(lp0
S'The Application Method of CRM as Big Data: Focused on the Car Maintenance Industry '
p1
a(lp2
F1.775407304249444
aF1.6045722488945064
aF1.2788680312084573
aF1.1239988688773457
aF0.7467854984154366
aF0.6924825865659024
aF0.6779459796297599
aF0.6076366574230708
aF0.527379992575549
aF0.489911906034336
aa.(lp0
S'Optique\t\xe2\x80\x93 Zooming In on Big Data Access'
p1
a(lp2
F2.8895053526558847
aF2.4728150025563487
aF0.9989626514795044
aF0.8716382820842995
aF0.7818278398081704
aF0.717237471916592
aF0.6497065951078903
aF0.648771124138289
aF0.6372121062248747
aF0.5821635630288948
aa.(lp0
S'Enhanced K-Means++ Clustering For Big Data with Mapreduce'
p1
a(lp2
F0.10962427028977552
aF0.08727442422269649
aF0.072972534220476
aF0.049026321811941144
aF0.04843802308227846
aF0.048387552775205046
aF0.04497198752658189
aF0.044906174904908315
aF0.04249412994838669
aF0.039614126030835924
aa.(lp0
S'Big Data, IoT, \xe2\x80\xa6.Buzz Words For Academia Or Reality For Industry?'
p1
a(lp2
F0.93583950193551
aF0.7280071664083004
aF0.383304340681055
aF0.3307397052160413
aF0.2796306708653788
aF0.2334358555345421
aF0.20400747492035826
aF0.19538959734616412
aF0.16085420884809817
aF0.15753904403665267
aa.(lp0
S'Semantic Link Network based Model for Organizing Multimedia Big Data'
p1
a(lp2
F0.1915406440690847
aF0.14134401936841448
aF0.11484754387089094
aF0.09998640506170992
aF0.09008458172763302
aF0.08677906620951305
aF0.0803017340023174
aF0.07998912404936794
aF0.07898636376470222
aF0.07752921170624506
aa.(lp0
S'Meet Charles, big data query advisor'
p1
a(lp2
F1.0358591564393147
aF0.8572363807169527
aF0.827887433910958
aF0.6878887767955909
aF0.5671529776946058
aF0.5519249559406387
aF0.44175631496631873
aF0.4332744219340763
aF0.4190955170230152
aF0.3789217838280798
aa.(lp0
S'Big Data Processing with MapReduce for E-Book'
p1
a(lp2
F0.4220775869306776
aF0.39932526449574557
aF0.28459994226896645
aF0.2099714506295908
aF0.17664264894235418
aF0.14659136853903268
aF0.13876017085750603
aF0.12064893851877269
aF0.09998640506170992
aF0.093457411578678
aa.(lp0
S'Elastic Memory: Bring Elasticity Back to In-Memory Big Data Analytics'
p1
a(lp2
F0.3346814014200247
aF0.2998113618329275
aF0.2861211956066223
aF0.12899760063161408
aF0.11830955758192661
aF0.11184744874350319
aF0.10805585355254758
aF0.10325277277851828
aF0.10060460105551076
aF0.09392989166495766
aa.(lp0
S'The Evolution of Big Data Security through Hadoop Incremental Security Model'
p1
a(lp2
F0.21117887895718435
aF0.11876149826158301
aF0.08401609277737941
aF0.08041561545255062
aF0.07950681520525812
aF0.06866817562862487
aF0.06653102785764277
aF0.06359588312442209
aF0.06106040003768544
aF0.05712151658355323
aa.(lp0
S'Small Stories in Big Data: Gaining Insights From Large Spatial Point Pattern Datasets'
p1
a(lp2
F1.6881473002323044
aF0.8873552995307407
aF0.6800860134825922
aF0.5988682903091063
aF0.564998885897171
aF0.5592918264436642
aF0.5576880276635604
aF0.42493086586087364
aF0.3848015978366082
aF0.38384042748522196
aa.(lp0
S'Addressing the Challenges of Teaching Big Data in Technical Education '
p1
a(lp2
F0.25960335128406564
aF0.20084479791044613
aF0.18596004105031816
aF0.14824130547705577
aF0.11310098611555548
aF0.11181592335318342
aF0.10417771987376914
aF0.09593554527442631
aF0.09407249708711424
aF0.09161315931762584
aa.(lp0
S'From Big Data to Big Service'
p1
a(lp2
F0.3762395185999989
aF0.2900912176121487
aF0.18249075876670062
aF0.1824181289939129
aF0.18174246978958772
aF0.17164566591238842
aF0.15481765945038956
aF0.14327617907312182
aF0.1346240516959909
aF0.10556531711038507
aa.(lp0
S'Big Data or Right Data?'
p1
a(lp2
F0.11234967003332591
aF0.10420390948423468
aF0.06625749771196143
aF0.05473445463162031
aF0.04609217232136447
aF0.043211411551279194
aF0.043211411551279194
aF0.036685994492919906
aF0.03296901924224796
aF0.02592684693076752
aa.(lp0
S'Broom: sweeping out Garbage Collection from Big Data systems'
p1
a(lp2
F1.8475751309539497
aF1.840232852657096
aF1.7820112917228879
aF1.568786285358526
aF1.4486178748261158
aF1.3805351831411996
aF1.202859476228283
aF0.9782894549623167
aF0.9640086551615636
aF0.9536526927384285
aa.(lp0
S'Using Big Data to Develop the Epidemiology of Orthopedic Trauma'
p1
a(lp2
F0.05232623595476401
aF0.036440281564034886
aF0.03432574523083707
aF0.03203218267703199
aF0.030007411861540215
aF0.029412844431081376
aF0.027903182807919046
aF0.027903182807919046
aF0.027903182807919046
aF0.027903182807919046
aa.(lp0
S''
p1
a(lp2
F0.3763081722417073
aF0.18221049081188673
aF0.1728202325285069
aF0.1112601444114679
aF0.10589576706299302
aF0.10190491524876576
aF0.09716407664153112
aF0.08743220719570029
aF0.08532733095787225
aF0.07942182529724476
aa.(lp0
S'Visualizing Big Data: Social Network Analysis'
p1
a(lp2
F0.3403206041865498
aF0.3377457036202417
aF0.2343942506013589
aF0.19456813957954364
aF0.19456813957954364
aF0.1937834185068283
aF0.16214011631628636
aF0.1378948959847313
aF0.13713617749155585
aF0.12848604397648233
aa.(lp0
S'Demystifying Big Data Analytics for Business Intelligence Through the Lens of Marketing Mix'
p1
a(lp2
F0.881658344908015
aF0.6661366652095934
aF0.5038120947587055
aF0.43400407153588016
aF0.3779799285946367
aF0.2674263251799764
aF0.25071217985622785
aF0.2476392990798147
aF0.225068253114714
aF0.18232043704876177
aa.(lp0
S'A Generic Solution to Integrate SQL and Analytics for Big Data'
p1
a(lp2
F0.26349386924067886
aF0.1806536937075028
aF0.13496557824442548
aF0.13401749776408614
aF0.11048476944479248
aF0.09145711768927017
aF0.07742301158892977
aF0.07034874102061675
aF0.051415422805821884
aF0.05118608863887783
aa.(lp0
S'Harnessing the Value of Big Data Analytics'
p1
a(lp2
F0.25375331043401617
aF0.14264579209928846
aF0.13434604654651194
aF0.11104798211016559
aF0.10462386089745478
aF0.09048160830941458
aF0.08187954331105156
aF0.07767466735229339
aF0.07767466735229339
aF0.07459926533325695
aa.(lp0
S'Big data - a 21st century science Maginot Line? No-boundary thinking: shifting from the big data paradigm'
p1
a(lp2
F0.9937101297760031
aF0.7459934709315595
aF0.37042455239322725
aF0.34266334020545447
aF0.3355509832174256
aF0.32898709067377724
aF0.2401037947587622
aF0.20439041843696143
aF0.20397001189338965
aF0.1923872103169503
aa.(lp0
S'Distribution, Data, Deployment: Software Architecture Convergence in Big Data Systems'
p1
a(lp2
F0.6646578293310789
aF0.27622143556616263
aF0.2503256759818349
aF0.18127031709029423
aF0.16647695999191747
aF0.1561184471229631
aF0.15518967454558927
aF0.1505193556074783
aF0.1488021857247928
aF0.14674263764452392
aa.(lp0
S'Tracking Tweets and their Retweets through Twitter'
p1
a(lp2
F0.28074177242953646
aF0.21469098140999546
aF0.21389849327964683
aF0.1721417923315955
aF0.17125392888462282
aF0.16042386995973515
aF0.14459308245837646
aF0.13809821121387933
aF0.13519657580538452
aF0.12366006642729582
aa.(lp0
S'Big Data Research: Will Industry Solve all the Problems?'
p1
a(lp2
F0.10533339897788938
aF0.08055447647765245
aF0.07008392878157237
aF0.06728057163030947
aF0.06251196442314721
aF0.05886478267910908
aF0.05460041703735977
aF0.053263785873995
aF0.04903373191161348
aF0.04598019240547875
aa.(lp0
S'A Bayesian Approach to Channeling Big Data Streams for Policy Analysis'
p1
a(lp2
F0.8024226010476982
aF0.5408269545522948
aF0.5041331347649239
aF0.46380248398373003
aF0.26998233123512727
aF0.24548552728966272
aF0.23964589571675413
aF0.21845769173146704
aF0.19680499658679734
aF0.1948851116125845
aa.(lp0
S'The Rise of Big Data and Can it be Used to Compare International Healthcare in Orthopaedic Surgery?'
p1
a(lp2
F0.20278932857586235
aF0.12392681190747146
aF0.11799811409394186
aF0.08861476134557415
aF0.08861476134557415
aF0.08449555357327598
aF0.07389590583862878
aF0.067868458195928
aF0.05633036904885065
aF0.05269661036933432
aa.(lp0
S'The Human and Ethical Aspects of Big Data'
p1
a(lp2
F0.46270648249048474
aF0.4008247644674412
aF0.281572987130421
aF0.27735804535040526
aF0.2580483080158834
aF0.2176031799229671
aF0.21339537519280977
aF0.21240711067974072
aF0.19706314578955503
aF0.1883657883756515
aa.(lp0
S'Predicting Parkinson\xe2\x80\x99s Disease Severity from Patient Voice Features'
p1
a(lp2
F0.454615267152164
aF0.2646215650914501
aF0.23568180069265446
aF0.22919743450948915
aF0.22648708745401974
aF0.22153673836661328
aF0.17704743688566113
aF0.12989103119807197
aF0.1037149034430907
aF0.1021322014345969
aa.(lp0
S'New Framework For Improving Big Data Analysis Using Mobile Agent'
p1
a(lp2
F0.710875274357903
aF0.6496354273622699
aF0.6308788163054991
aF0.6253293399439537
aF0.5699016881803393
aF0.4568521082156988
aF0.37775799741035065
aF0.30291281088214816
aF0.2589462296325949
aF0.25627302286881937
aa.(lp0
S'Cross-country Comparisons of Wage Rates: The Big Mac Index'
p1
a(lp2
F0.22494478474184953
aF0.2145825425897449
aF0.20100264959193634
aF0.09929918764236818
aF0.06629159692190405
aF0.06601471323614733
aF0.06386740586379235
aF0.06356856555696958
aF0.06209331125646478
aF0.057777237874400846
aa.(lp0
S'Bootstrapping Privacy Compliance in Big Data Systems'
p1
a(lp2
F0.8238196109357979
aF0.3384155248242489
aF0.2187736726136559
aF0.21319362836005942
aF0.18434225440523433
aF0.1626990112459233
aF0.13331520674894654
aF0.11871008851866945
aF0.11622351357600468
aF0.10681204827146233
aa.(lp0
S'CODD: A Dataless Approach to Big Data Testing'
p1
a(lp2
F0.25237324599642613
aF0.13108777982954053
aF0.11678783050097993
aF0.11490457098000806
aF0.10324758551826811
aF0.10158230188087669
aF0.09676379864980938
aF0.0948082189393711
aF0.09455770699575419
aF0.08989738643919457
aa.(lp0
S'Cookieless Cross-Device Matching System'
p1
a(lp2
F0.6958059823924204
aF0.5020694484124925
aF0.36009874025700117
aF0.34284850120277355
aF0.2836504759149289
aF0.27355467279716383
aF0.15317066307325772
aF0.14820751498602486
aF0.146788552111872
aF0.13864573982563616
aa.(lp0
S'Crawling big data in a new frontier for socioeconomic research: Testing with social tagging'
p1
a(lp2
F0.17562988307647184
aF0.0741284012434258
aF0.0713712903567396
aF0.06788627249228883
aF0.05848806139993909
aF0.043271004656021794
aF0.042636511017968295
aF0.04220955486225827
aF0.0413937364068194
aF0.04098313732318968
aa.(lp0
S'Scientific big data analytics challenges at large scale'
p1
a(lp2
F0.0621443355495641
aF0.045853637990083525
aF0.0457990759274669
aF0.030984505817147664
aF0.03056909199338902
aF0.027614464113091274
aF0.024523729599289373
aF0.022926818995041762
aF0.022926818995041762
aF0.022926818995041762
aa.(lp0
S'Similarity Detection via Random Subsets for Cyber War Protection in Big Data using Hadoop Framework'
p1
a(lp2
F0.2305280102330273
aF0.17570297328289078
aF0.17305965194691972
aF0.10211377538217183
aF0.06317333468690363
aF0.06272156983760517
aF0.05383220557747346
aF0.05181347073541297
aF0.05105688769108591
aF0.05105688769108591
aa.(lp0
S'APPLICATION OF BIG DATA IN EDUCATION DATA MINING AND LEARNING ANALYTICS '
p1
a(lp2
F0.4198766829447729
aF0.18240763085582215
aF0.13473096326744566
aF0.10978078488458536
aF0.09852324594147538
aF0.08924590242642452
aF0.07980013549009028
aF0.07220088977338882
aF0.07160053473348243
aF0.06846346949150427
aa.(lp0
S'Navigating the Local Modes of Big Data: The Case of Topic Models'
p1
a(lp2
F0.3305510821642754
aF0.27969706952361767
aF0.24791331162320657
aF0.22884305688295992
aF0.21486084493276103
aF0.20804248941695042
aF0.19705929898254881
aF0.17901822722820243
aF0.17599449363588981
aF0.14334502845308358
aa.(lp0
S'Generalizing User Expertise in Recommender Systems'
p1
a(lp2
F0.4194387681244167
aF0.39927344273381976
aF0.39927344273381976
aF0.39524037765570036
aF0.35490972687450645
aF0.33071133640579015
aF0.28922484960840117
aF0.2615877451880098
aF0.25849444931245386
aF0.25748065879772297
aa.(lp0
S'Principal Manifolds for Data Visualization and Dimension Reduction'
p1
a(lp2
F1.807744346452972
aF0.9240721008998967
aF0.8168609778597066
aF0.5869547766668902
aF0.37252287285447344
aF0.3325458492126959
aF0.32640100216697554
aF0.24194176507581222
aF0.23381856248106178
aF0.22455335948402833
aa.(lp0
S'Critical Success Factors (CSFs) of Service Oriented Architecture (SOA) in BIG DATA Systems'
p1
a(lp2
F0.2659893096707478
aF0.23922647604601885
aF0.09538367477043497
aF0.07017037502753555
aF0.057599591133253775
aF0.05649165670303372
aF0.054838616585239926
aF0.05152074706779952
aF0.04812894430063855
aF0.04810444388957145
aa.(lp0
S'The Uses of Big Data in Cities'
p1
a(lp2
F0.6173127340268926
aF0.46640932881862673
aF0.4494122954158072
aF0.2563339323053649
aF0.24467019433680293
aF0.23066234168528052
aF0.2156682388838535
aF0.19715369408035166
aF0.1776439522379547
aF0.1744937235153849
aa.(lp0
S'Tweeting the Olympics: Towards a methodological framework for Big Data analysis of audience engagement during global media events'
p1
a(lp2
F0.18668764370389035
aF0.15903581364749148
aF0.10268846282354634
aF0.09536708667972539
aF0.07421671303549603
aF0.07068258384332954
aF0.06714845465116306
aF0.06512267547241607
aF0.05662893863803758
aF0.05220797267506321
aa.(lp0
S'The Rise of Big Data Spurs a Revolution in Big Analytics'
p1
a(lp2
F0.40413114493466595
aF0.16362382941257206
aF0.14188013921016723
aF0.12845004846199384
aF0.08692261650755162
aF0.08383750718320518
aF0.07843594716793709
aF0.07245865417399831
aF0.06477129538167634
aF0.06421662071568975
aa.(lp0
S'An Overview of high-performance parallel Big Data transfers over multiple network channels'
p1
a(lp2
F0.6048673777544734
aF0.5837909021545574
aF0.5329481714651715
aF0.4436911848386419
aF0.4359837113253715
aF0.43032595899263093
aF0.4091620883862824
aF0.36212319430055095
aF0.3249293583701908
aF0.3104236930917212
aa.(lp0
S'Harnessing Big Data for Social Good: A Grand Challenge for Social Work'
p1
a(lp2
F2.2638430067398527
aF1.568761768059626
aF1.374012566272673
aF0.9105374260114149
aF0.8266035435052924
aF0.6668805542790542
aF0.6248457889729019
aF0.6000944104494416
aF0.5849620152086741
aF0.554094999803745
aa.(lp0
S'Why Big Data Industrial Systems Need Rules and What We Can Do About It'
p1
a(lp2
F0.8733069341367424
aF0.7562464325182456
aF0.7556596457410201
aF0.6299608280509221
aF0.5707271431384573
aF0.5405030254772522
aF0.47879235137739307
aF0.47515526123986956
aF0.43792265243645057
aF0.35860774433197706
aa.(lp0
S'THE PROMISE OF BIG DATA: NEW METHODS FOR SOCIOLOGICAL ANALYSIS'
p1
a(lp2
F0.5887042527364303
aF0.35223272133380973
aF0.3431516572468129
aF0.29035913511235295
aF0.2768288683752754
aF0.26808741029296357
aF0.2564314359323999
aF0.25206044554718854
aF0.21693143838992363
aF0.20427849525394096
aa.(lp0
S'Cookieless Fingerprints Across Devices'
p1
a(lp2
F0.2905830601576174
aF0.18974937253273166
aF0.16246403663745096
aF0.138093377778725
aF0.12784055341963355
aF0.10653379451636129
aF0.0999476426536634
aF0.0938871348917875
aF0.09360390906922875
aF0.09133871739270162
aa.(lp0
S'Predicting Breakout Apps in IOS'
p1
a(lp2
F0.2236545003578289
aF0.18029974624581208
aF0.16264872119964044
aF0.1560448293854868
aF0.11495231997456151
aF0.11090083723371534
aF0.09607693325230678
aF0.09273064356265465
aF0.09103466318213346
aF0.08940310657470653
aa.(lp0
S'A Prototype Implementation of Recommendation Engine Using Big Data Analytics'
p1
a(lp2
F0.5130017996441695
aF0.1560788504614068
aF0.14781073920879947
aF0.12532007180817864
aF0.11421107236472465
aF0.10375487072379663
aF0.09480192479925088
aF0.08566962286829333
aF0.07723746233805395
aF0.07053021449689749
aa.(lp0
S'SEPARATION, POOLING, AND PREDICTIVE PRIVACY HARMS FROM BIG DATA: CONFUSING BENEFITS FOR COSTS'
p1
a(lp2
F0.5221132564004699
aF0.4258727302686611
aF0.4020395763737865
aF0.37081325260658743
aF0.3632497286806399
aF0.3261165758259312
aF0.288965945518659
aF0.2844567615335734
aF0.27860841798166897
aF0.27673074958047417
aa.(lp0
S'Participatory medicine: a driving force for revolutionizing healthcare'
p1
a(lp2
F1.2971209305302909
aF1.2322648840037762
aF0.8133483106382248
aF0.6801781681660287
aF0.5882178254198632
aF0.5837044187386309
aF0.5188483722121163
aF0.4539923256856018
aF0.4539923256856018
aF0.45376080558206644
aa.(lp0
S'MegaODA Large Sample and BIG DATA Time Trials: Separating the Chaff'
p1
a(lp2
F1.5780359689405512
aF1.5780359689405512
aF1.15034723528779
aF1.0060464824547686
aF0.9353331335428747
aF0.5100263133652594
aF0.42046531559727673
aF0.3879634947993056
aF0.3728248442816033
aF0.36028218468962353
aa.(lp0
S'Bayes and Big Data: The Consensus Monte Carlo Algorithm'
p1
a(lp2
F2.0488232535399
aF1.2329524403359589
aF1.169713153947564
aF1.087013570494136
aF1.0495558875600253
aF1.0375012640428734
aF0.7657291798072027
aF0.7392731616302669
aF0.7097744768420885
aF0.6509496699262025
aa.(lp0
S'Study and Analysis of an Efficient Power Consumption Application for Big Data Collection'
p1
a(lp2
F0.9802567717686884
aF0.7784742664457458
aF0.770642435197408
aF0.6558029281704192
aF0.5029888974673152
aF0.32315635020055367
aF0.2519039766282795
aF0.24082082506605842
aF0.17740036255781919
aF0.1763934355029311
aa.(lp0
S'CS Principles Goes to Middle School: Learning How to Teach \xe2\x80\x9cBig Data\xe2\x80\x9d'
p1
a(lp2
F1.2053252842740885
aF0.6093389689632623
aF0.2603152061314708
aF0.2384872516821934
aF0.23311261982895431
aF0.2079810436879474
aF0.1795343060445027
aF0.17691240634293318
aF0.17321652325856715
aF0.16919464342424104
aa.(lp0
S'Parkinson Disease Classifier Using Patient Voice Recording Data'
p1
a(lp2
F0.7126421458502664
aF0.48972933091449755
aF0.34023900158089954
aF0.22385722523668317
aF0.2084853683599765
aF0.19239366571640976
aF0.18761836904673784
aF0.1839919064343062
aF0.17837541355063444
aF0.1767593340443279
aa.(lp0
S'Knowledge Bases in the Age of Big Data Analytics'
p1
a(lp2
F0.28069837258784774
aF0.26586934671810286
aF0.21976958523903328
aF0.19831038880025886
aF0.1526936977211201
aF0.14278402212784855
aF0.14019991510149574
aF0.12111294751336447
aF0.10828852533759198
aF0.1021053382747721
aa.(lp0
S'Big Data and Marketing Analytics in Gaming: Combining Empirical Models and Field Experimentation'
p1
a(lp2
F0.12971415461491176
aF0.11098347369185109
aF0.07405863776059184
aF0.05730294632966284
aF0.05597994684636947
aF0.05032200177722451
aF0.0423389698597428
aF0.04193500148102043
aF0.04105196102067094
aF0.033611668607317395
aa.(lp0
S'Challenges\tand\tOpportunities\twith\tBig Data'
p1
a(lp2
F0.2860924874758415
aF0.09818278427984314
aF0.06882255017477476
aF0.0621742911593464
aF0.050905572821020637
aF0.04879983205071728
aF0.047150606498118856
aF0.0431989913631049
aF0.04187521398205496
aF0.035031733160307124
aa.(lp0
S'Tupleware: \xe2\x80\x9cBig\xe2\x80\x9d Data, Big Analytics, Small Clusters'
p1
a(lp2
F0.4123196148773959
aF0.27824049397292433
aF0.12368545964194108
aF0.12184521011751391
aF0.10554356446625798
aF0.10193450014398542
aF0.09920935898587792
aF0.08993517385077117
aF0.07784720390318321
aF0.07501777350674112
aa.(lp0
S'Adapting bioinformatics curricula for big data'
p1
a(lp2
F0.5069683871797942
aF0.30156478524611285
aF0.2196250030539691
aF0.21217712773236816
aF0.11964307335915726
aF0.11916258731646305
aF0.08356194318160598
aF0.08116482857715972
aF0.0807495398646332
aF0.0805645853734641
aa.(lp0
S'Real-Time Big Data Processing Framework: Challenges and Solutions'
p1
a(lp2
F2.260998183214233
aF1.3534146785398038
aF1.3161264879388912
aF1.1881139081705587
aF0.9646830311593403
aF0.7451693365799777
aF0.6890048793227581
aF0.6426187816800147
aF0.5678461573161527
aF0.5537059287559043
aa.(lp0
S'Big Data in Healthcare Hype and Hope'
p1
a(lp2
F0.41019570078173756
aF0.27187314634757076
aF0.24413623843350413
aF0.19867702935872322
aF0.16444335134142693
aF0.1485126663486212
aF0.1405318758285748
aF0.13442987403596293
aF0.12807247389926887
aF0.12118744248222982
aa.(lp0
S'Authorship Attribution in Multi-author Documents'
p1
a(lp2
F0.6563210178409677
aF0.45175703563991937
aF0.39533161354987034
aF0.3321360364092889
aF0.3281605089204839
aF0.2464235108843111
aF0.24303496542985298
aF0.22832272872012024
aF0.2091593952863858
aF0.2051003180753024
aa.(lp0
S'Next-generation plant science: putting big data to work'
p1
a(lp2
F0.16516079488591734
aF0.0604771448329016
aF0.0520923301409966
aF0.05153248874246179
aF0.04964842182374561
aF0.043438149976997735
aF0.04288484638529052
aF0.041373684853121345
aF0.03901128096843017
aF0.03618351251408719
aa.(lp0
S'Digital Humanities, Big Data, and Literary Studies: Mapping European Literatures in the 21st Century '
p1
a(lp2
F0.24140755035287684
aF0.21274352612355607
aF0.1962831716524285
aF0.08376056851035427
aF0.08193944758288632
aF0.07858757578414095
aF0.07707731439446588
aF0.07572930746760591
aF0.07193882676816817
aF0.061752220559787234
aa.