(lp0
S'Effective Implementation of Agile Practices \xe2\x80\x93 In Collaboration with Cloud Computing'
p1
a(lp2
F0.47196562485364174
aF0.26407892628738694
aF0.23967674525816635
aF0.20284323323523926
aF0.1606617206367125
aF0.15731460145678097
aF0.1339530785515731
aF0.1339530785515731
aF0.11561712536901336
aF0.11534752202893843
aa.(lp0
S'Open Source Solution for Cloud Computing Platform Using OpenStack'
p1
a(lp2
F0.13226548071155328
aF0.12754171354328353
aF0.12754171354328353
aF0.11215629873961906
aF0.10630054233330011
aF0.09367894986290413
aF0.09305611741214198
aF0.07948468751975743
aF0.07038433203491333
aF0.06923481789435305
aa.(lp0
S'A Survey on User Authentication Mechanism in Mobile Cloud Computing'
p1
a(lp2
F0.6176355911810706
aF0.5155558797814153
aF0.3130272742788088
aF0.19346867017869374
aF0.18904591632532042
aF0.17205562897186968
aF0.1674517152319893
aF0.1534415325011508
aF0.14060614903129506
aF0.14005877751834853
aa.(lp0
S'Application for Intra-College Communication Based on Cloud Computing'
p1
a(lp2
F0.22264928776569243
aF0.19064222729662306
aF0.11322661395116008
aF0.09420264988601154
aF0.08765931402670459
aF0.08008226161992442
aF0.07023022709630596
aF0.06167710418375531
aF0.06160133019355855
aF0.06096505718907249
aa.(lp0
S'Reduct Algorithm Based Execution Times'
p1
a(lp2
F1.5325507219270051
aF0.4595403520692073
aF0.3375657676387574
aF0.29397066639721353
aF0.2445496346926376
aF0.22688245091592765
aF0.20611736379574738
aF0.16238393604007023
aF0.16238393604007023
aF0.1587294212756561
aa.(lp0
S'LEAN CONFIGURATION MANAGEMENT SYSTEMS IMPLEMENTATION FOR THE GOVERNANCE: A CLOUD COMPUTING CASE STUDY'
p1
a(lp2
F0.3409840295062166
aF0.26826584638803014
aF0.17324682289095025
aF0.13517794798310673
aF0.1308912938989657
aF0.1308912938989657
aF0.11728383287159723
aF0.10968307455239257
aF0.1093779493819045
aF0.10544020897416681
aa.(lp0
S'The novel analysis model of cloud computing based on RFID internet of things '
p1
a(lp2
F0.6012871371597672
aF0.2458527027060069
aF0.2181748314908255
aF0.19996260092757806
aF0.1961430308373793
aF0.16684414463071104
aF0.163608923910656
aF0.12624023749353203
aF0.11721843107085714
aF0.11110466783737362
aa.(lp0
S'An Online Auction Framework for Dynamic Resource Provisioning in Cloud Computing'
p1
a(lp2
F0.4748076820684041
aF0.2733463326750424
aF0.15743190557040548
aF0.09429412643516286
aF0.09128024118383027
aF0.08917471574267724
aF0.07192482543948615
aF0.07192482543948615
aF0.07192482543948615
aF0.06958739243014793
aa.(lp0
S'Trusted Virtual Machine Allocation in Cloud Computing IaaS Service'
p1
a(lp2
F0.1810198745411228
aF0.1404779229184482
aF0.12996298685003688
aF0.1207015581889617
aF0.11719175877143542
aF0.11562415269101677
aF0.0946502882571233
aF0.09283070489288349
aF0.07828254146454153
aF0.07154809279967292
aa.(lp0
S'Next Generation Network: Collaboration of Grid and Cloud Computing, A Theoretical Approach'
p1
a(lp2
F0.8942219068593361
aF0.6895641624779335
aF0.4965053475695816
aF0.44261833650350446
aF0.36098039779574276
aF0.33997738675056033
aF0.2949943522626358
aF0.2946470685171522
aF0.2709490947695647
aF0.25689584470622273
aa.(lp0
S'An Adaptive Fault Tolerance Running on a Cloud Computing Environment'
p1
a(lp2
F1.5529668610578786
aF0.48382716700536044
aF0.444597176934608
aF0.43801629414452986
aF0.42916748012140804
aF0.3687005842967423
aF0.35395256092487265
aF0.32360692506483596
aF0.2922166964761424
aF0.2905360604258329
aa.(lp0
S'A Cooperative Intrusion Detection Model for Cloud Computing Networks'
p1
a(lp2
F0.177197999593691
aF0.12621214015403281
aF0.09545082358183819
aF0.0851198154527198
aF0.08080770537669765
aF0.06894083955214765
aF0.06712374046100805
aF0.06712374046100805
aF0.050342805345756046
aF0.05029290754214049
aa.(lp0
S'A Strategic Model for Adopting Energy Efficient Cloud Computing Infrastructure for Sustainable Environment'
p1
a(lp2
F0.1705030096226447
aF0.10626089697853207
aF0.09390497872521439
aF0.07338451747648433
aF0.07338451747648433
aF0.07099309943692461
aF0.05776083649037772
aF0.05503838810736326
aF0.050659264838602495
aF0.04409524006333431
aa.(lp0
S'Review on Fog computing: Reducing Insiders data theft attack in cloud computing'
p1
a(lp2
F0.2621971287128925
aF0.18188089012160139
aF0.1589232196602363
aF0.1518950010379242
aF0.1461847347847714
aF0.12824859556608872
aF0.12132531553341551
aF0.10364819366667194
aF0.09974890766251346
aF0.09528138229379952
aa.(lp0
S'A Mobile Cloud Computing Architecture with Easy Resource Sharing'
p1
a(lp2
F0.1700580068375279
aF0.10706451392463702
aF0.09164647115126283
aF0.08683813115107807
aF0.08066519377897434
aF0.06565315488068137
aF0.05838236640945589
aF0.055477098653338115
aF0.05522953197471509
aF0.05372403854062025
aa.(lp0
S'A Multi-Level Security Framework for Cloud Computing'
p1
a(lp2
F0.22419370803299227
aF0.15948889219085063
aF0.13733312417114316
aF0.13626956036111157
aF0.11773460218573994
aF0.1163276734789977
aF0.1113624194595764
aF0.10754822417622038
aF0.09057959278471901
aF0.08973849096951249
aa.(lp0
S'Cloud-Computing-Based Rick Control System for Making Information Technology Outsourcing Secure'
p1
a(lp2
F0.18541076783499044
aF0.1796867749476798
aF0.11380020047132566
aF0.0993947695288004
aF0.09441586050227123
aF0.07985140117105625
aF0.06226514305833177
aF0.05646406796484115
aF0.05267134834874735
aF0.04880362702625028
aa.(lp0
S'Trust Assessment Policy Manager in Cloud Computing \xe2\x80\x93 Cloud Service Provider\xe2\x80\x99s Perspective'
p1
a(lp2
F0.2927213962076057
aF0.28083162713690846
aF0.24911426307020784
aF0.18239800258288175
aF0.1794841198833266
aF0.17572619466713016
aF0.15793310155325133
aF0.13802698657210838
aF0.1367985019371613
aF0.13173559137340465
aa.(lp0
S'Privilege Management System in Cloud Computing using OAuth'
p1
a(lp2
F0.47503478209841976
aF0.2566243265753371
aF0.18404577214898815
aF0.13984420989477667
aF0.09747512761819534
aF0.09139744612606564
aF0.08494420253030223
aF0.08494420253030223
aF0.05998998776736158
aF0.058049149901634775
aa.(lp0
S'Cloud Computing Adoption by Universities: Concepts and Review'
p1
a(lp2
F0.44052126694117993
aF0.19456813957954364
aF0.16063674055465907
aF0.13383369683446758
aF0.09991843037025952
aF0.09743540000856368
aF0.09495401857777536
aF0.09263773188546669
aF0.0921686216297224
aF0.08035347598849092
aa.(lp0
S'Ranked Keyword Search in Cloud Computing: An Innovative Approach'
p1
a(lp2
F0.3005589245990112
aF0.2567215304862914
aF0.18055299745846987
aF0.14919330204720097
aF0.12545211144471916
aF0.1158019490258946
aF0.1158019490258946
aF0.1043511278951185
aF0.08691274630498025
aF0.08527638504073416
aa.(lp0
S'Critical Analysis of Cloud Computing Using OpenStack'
p1
a(lp2
F0.2519183387980366
aF0.18091277323141264
aF0.12397855047835443
aF0.09642776148316456
aF0.09642776148316456
aF0.07786543397604244
aF0.07714220918653164
aF0.07714220918653164
aF0.07714220918653164
aF0.07304969924927504
aa.(lp0
S'Optimized ERP System Deployment on Mobile Cloud Computing with AOM'
p1
a(lp2
F0.24458404584272178
aF0.12280038881183901
aF0.11051944437652667
aF0.10685570006594954
aF0.10685570006594954
aF0.10075260975720572
aF0.08406291726586422
aF0.08357260006835403
aF0.07652958446653516
aF0.07327114256512035
aa.(lp0
S'Data Security in Cloud Computing'
p1
a(lp2
F1.341452115382239
aF0.7064158403872282
aF0.5386159125792228
aF0.3684010340110618
aF0.28757463981184955
aF0.2833369753741152
aF0.23812939887856147
aF0.2366193972577486
aF0.21637977767869546
aF0.16826197840036775
aa.(lp0
S'New Challenges for Security against Deduplication in Cloud Computing'
p1
a(lp2
F0.6424196472102214
aF0.5910436472506071
aF0.48138354455599347
aF0.2675378294040531
aF0.25527865177875037
aF0.25212239971878303
aF0.22429663608846087
aF0.22070577705929278
aF0.22070577705929278
aF0.18780826174318357
aa.(lp0
S'IDS: Survey on Intrusion Detection System in Cloud Computing'
p1
a(lp2
F0.15232091558349609
aF0.1248980379628244
aF0.09302673226264721
aF0.07740882972519478
aF0.07616045779174804
aF0.06773272600954543
aF0.06773272600954543
aF0.05457778488143893
aF0.05294859727303777
aF0.04440420226543634
aa.(lp0
S'A New Tier Based Approach for Clustered Content Centric Networks Implementing Cloud Computing'
p1
a(lp2
F0.16018108644658005
aF0.13339692127051464
aF0.09878820385637682
aF0.07601814272041087
aF0.07526720293819186
aF0.07094636128874034
aF0.05701977149236225
aF0.04700191604899175
aF0.04690199605687306
aF0.04656546678165015
aa.(lp0
S'Cloud Computing and Faults in Cloud Computing'
p1
a(lp2
F0.17338710163540352
aF0.12050011513893304
aF0.11009663489865038
aF0.10643143075824249
aF0.09760136109870987
aF0.09333996484982608
aF0.09101011294219176
aF0.07828513180953153
aF0.07701184840448082
aF0.07230006908335983
aa.(lp0
S'Design of the Integrated Logistics Information System Based on Cloud Computing'
p1
a(lp2
F0.1826531438461238
aF0.1403150505400607
aF0.131724333160057
aF0.12599718824005451
aF0.11269566546750306
aF0.10881575348004706
aF0.08877074626003839
aF0.08179184531317356
aF0.08077740696103963
aF0.06629432850341802
aa.(lp0
S'Usage of Multiple Clouds to increase Security in Cloud Computing'
p1
a(lp2
F0.4834592926108222
aF0.4591212477323414
aF0.40096588968624486
aF0.3677714115115993
aF0.33912217046904053
aF0.3378627557069505
aF0.28901088011908155
aF0.26733102773730666
aF0.16834445750185853
aF0.16834445750185853
aa.(lp0
S'Evolving E-Governance through Cloud Computing based environment'
p1
a(lp2
F0.6774182074631122
aF0.6687084615333997
aF0.5866903993436617
aF0.46263169171583773
aF0.32750908246837035
aF0.3000287217122476
aF0.2710103792227045
aF0.2710103792227045
aF0.26805726083627207
aF0.2552948637213261
aa.(lp0
S'Automatic Schedule Control for Distributed Software Development in Cloud Computing Environments '
p1
a(lp2
F1.043380976474318
aF0.2159926533661449
aF0.16882589152034966
aF0.16626728641669608
aF0.16362307014844854
aF0.13379900175569395
aF0.12961170402831404
aF0.12203542487077165
aF0.10065521303750205
aF0.0894793591060726
aa.(lp0
S'A Review Data Safeguard for Cloud Computing'
p1
a(lp2
F0.7754168591569458
aF0.5833317185658479
aF0.34727769437909783
aF0.3314045769311065
aF0.2786278566113728
aF0.27536642968565517
aF0.27415005704463524
aF0.26958461173968085
aF0.25197730853162736
aF0.23462156696335923
aa.(lp0
S'A Cloud-computing-based Resource Allocation Model for University Resource Optimization'
p1
a(lp2
F1.0233669051687417
aF0.5547831864081093
aF0.44435517826017334
aF0.3476208106706335
aF0.317977966627346
aF0.2519959936044995
aF0.2331838421933871
aF0.2331838421933871
aF0.22894413597168914
aF0.2252578041562741
aa.(lp0
S'An Effective Approach on Scheduling Algorithm in Cloud Computing'
p1
a(lp2
F0.8852241827693182
aF0.612829156992288
aF0.5360307758625419
aF0.48978408467241685
aF0.3615003454167991
aF0.3615003454167991
aF0.3436404973926905
aF0.3340246170724098
aF0.32462205890208523
aF0.28820329659279487
aa.(lp0
S'An Extension of Virtual Computing Laboratories: Scalable Virtual Desktop Infrastructure on Cloud Computing'
p1
a(lp2
F0.787200856512209
aF0.438114704336787
aF0.35240940172083235
aF0.3353432434074995
aF0.24395023309662003
aF0.23429205034011405
aF0.22403592835403882
aF0.20641321048336855
aF0.15865955166303902
aF0.15835222086917805
aa.(lp0
S'Introduction to Secure Cloud Computing mini-track'
p1
a(lp2
F0.17034720862365393
aF0.14721984567091523
aF0.10368960524918065
aF0.09998640506170992
aF0.09392078402576336
aF0.09092075190236358
aF0.08572357998031155
aF0.08172821461537927
aF0.07406400374941474
aF0.0647619456103534
aa.(lp0
S'Automatic Resource Scaling for Medical Cyber-Physical Systems Running in Private Cloud Computing Architecture'
p1
a(lp2
F0.30703105088425925
aF0.22705369333942407
aF0.19347468887513886
aF0.1421737098930443
aF0.12629861692005462
aF0.09649781966925522
aF0.096369567802699
aF0.09567429669649723
aF0.07322293307108596
aF0.0709060416583746
aa.(lp0
S'A Novel Cloud Computing Security Model to Detect and Prevent DoS and DDoS Attack'
p1
a(lp2
F0.9107321829017418
aF0.6873850968907947
aF0.5885992147028961
aF0.5062776462129805
aF0.48016251165730295
aF0.3992596071760904
aF0.32672181187005517
aF0.28437882391003005
aF0.2663801641688889
aF0.24284862704525084
aa.(lp0
S'Effective Implementation of Agile Practices \xe2\x80\x93 In Collaboration with Cloud Computing'
p1
a(lp2
F0.47196562485364174
aF0.26407892628738694
aF0.23967674525816635
aF0.20284323323523926
aF0.1606617206367125
aF0.15731460145678097
aF0.1339530785515731
aF0.1339530785515731
aF0.11561712536901336
aF0.11534752202893843
aa.(lp0
S'Open Source Solution for Cloud Computing Platform Using OpenStack'
p1
a(lp2
F0.13226548071155328
aF0.12754171354328353
aF0.12754171354328353
aF0.11215629873961906
aF0.10630054233330011
aF0.09367894986290413
aF0.09305611741214198
aF0.07948468751975743
aF0.07038433203491333
aF0.06923481789435305
aa.(lp0
S'A Survey on User Authentication Mechanism in Mobile Cloud Computing'
p1
a(lp2
F0.6176355911810706
aF0.5155558797814153
aF0.3130272742788088
aF0.19346867017869374
aF0.18904591632532042
aF0.17205562897186968
aF0.1674517152319893
aF0.1534415325011508
aF0.14060614903129506
aF0.14005877751834853
aa.(lp0
S'Application for Intra-College Communication Based on Cloud Computing'
p1
a(lp2
F0.22264928776569243
aF0.19064222729662306
aF0.11322661395116008
aF0.09420264988601154
aF0.08765931402670459
aF0.08008226161992442
aF0.07023022709630596
aF0.06167710418375531
aF0.06160133019355855
aF0.06096505718907249
aa.(lp0
S'Reduct Algorithm Based Execution Times'
p1
a(lp2
F1.5325507219270051
aF0.4595403520692073
aF0.3375657676387574
aF0.29397066639721353
aF0.2445496346926376
aF0.22688245091592765
aF0.20611736379574738
aF0.16238393604007023
aF0.16238393604007023
aF0.1587294212756561
aa.(lp0
S'LEAN CONFIGURATION MANAGEMENT SYSTEMS IMPLEMENTATION FOR THE GOVERNANCE: A CLOUD COMPUTING CASE STUDY'
p1
a(lp2
F0.3409840295062166
aF0.26826584638803014
aF0.17324682289095025
aF0.13517794798310673
aF0.1308912938989657
aF0.1308912938989657
aF0.11728383287159723
aF0.10968307455239257
aF0.1093779493819045
aF0.10544020897416681
aa.(lp0
S'The novel analysis model of cloud computing based on RFID internet of things '
p1
a(lp2
F0.6012871371597672
aF0.2458527027060069
aF0.2181748314908255
aF0.19996260092757806
aF0.1961430308373793
aF0.16684414463071104
aF0.163608923910656
aF0.12624023749353203
aF0.11721843107085714
aF0.11110466783737362
aa.(lp0
S'An Online Auction Framework for Dynamic Resource Provisioning in Cloud Computing'
p1
a(lp2
F0.4748076820684041
aF0.2733463326750424
aF0.15743190557040548
aF0.09429412643516286
aF0.09128024118383027
aF0.08917471574267724
aF0.07192482543948615
aF0.07192482543948615
aF0.07192482543948615
aF0.06958739243014793
aa.(lp0
S'Trusted Virtual Machine Allocation in Cloud Computing IaaS Service'
p1
a(lp2
F0.1810198745411228
aF0.1404779229184482
aF0.12996298685003688
aF0.1207015581889617
aF0.11719175877143542
aF0.11562415269101677
aF0.0946502882571233
aF0.09283070489288349
aF0.07828254146454153
aF0.07154809279967292
aa.(lp0
S'Next Generation Network: Collaboration of Grid and Cloud Computing, A Theoretical Approach'
p1
a(lp2
F0.8942219068593361
aF0.6895641624779335
aF0.4965053475695816
aF0.44261833650350446
aF0.36098039779574276
aF0.33997738675056033
aF0.2949943522626358
aF0.2946470685171522
aF0.2709490947695647
aF0.25689584470622273
aa.(lp0
S'An Adaptive Fault Tolerance Running on a Cloud Computing Environment'
p1
a(lp2
F1.5529668610578786
aF0.48382716700536044
aF0.444597176934608
aF0.43801629414452986
aF0.42916748012140804
aF0.3687005842967423
aF0.35395256092487265
aF0.32360692506483596
aF0.2922166964761424
aF0.2905360604258329
aa.(lp0
S'A Cooperative Intrusion Detection Model for Cloud Computing Networks'
p1
a(lp2
F0.177197999593691
aF0.12621214015403281
aF0.09545082358183819
aF0.0851198154527198
aF0.08080770537669765
aF0.06894083955214765
aF0.06712374046100805
aF0.06712374046100805
aF0.050342805345756046
aF0.05029290754214049
aa.(lp0
S'A Strategic Model for Adopting Energy Efficient Cloud Computing Infrastructure for Sustainable Environment'
p1
a(lp2
F0.1705030096226447
aF0.10626089697853207
aF0.09390497872521439
aF0.07338451747648433
aF0.07338451747648433
aF0.07099309943692461
aF0.05776083649037772
aF0.05503838810736326
aF0.050659264838602495
aF0.04409524006333431
aa.(lp0
S'Review on Fog computing: Reducing Insiders data theft attack in cloud computing'
p1
a(lp2
F0.2621971287128925
aF0.18188089012160139
aF0.1589232196602363
aF0.1518950010379242
aF0.1461847347847714
aF0.12824859556608872
aF0.12132531553341551
aF0.10364819366667194
aF0.09974890766251346
aF0.09528138229379952
aa.(lp0
S'A Mobile Cloud Computing Architecture with Easy Resource Sharing'
p1
a(lp2
F0.1700580068375279
aF0.10706451392463702
aF0.09164647115126283
aF0.08683813115107807
aF0.08066519377897434
aF0.06565315488068137
aF0.05838236640945589
aF0.055477098653338115
aF0.05522953197471509
aF0.05372403854062025
aa.(lp0
S'A Multi-Level Security Framework for Cloud Computing'
p1
a(lp2
F0.22419370803299227
aF0.15948889219085063
aF0.13733312417114316
aF0.13626956036111157
aF0.11773460218573994
aF0.1163276734789977
aF0.1113624194595764
aF0.10754822417622038
aF0.09057959278471901
aF0.08973849096951249
aa.(lp0
S'Cloud-Computing-Based Rick Control System for Making Information Technology Outsourcing Secure'
p1
a(lp2
F0.18541076783499044
aF0.1796867749476798
aF0.11380020047132566
aF0.0993947695288004
aF0.09441586050227123
aF0.07985140117105625
aF0.06226514305833177
aF0.05646406796484115
aF0.05267134834874735
aF0.04880362702625028
aa.(lp0
S'Trust Assessment Policy Manager in Cloud Computing \xe2\x80\x93 Cloud Service Provider\xe2\x80\x99s Perspective'
p1
a(lp2
F0.2927213962076057
aF0.28083162713690846
aF0.24911426307020784
aF0.18239800258288175
aF0.1794841198833266
aF0.17572619466713016
aF0.15793310155325133
aF0.13802698657210838
aF0.1367985019371613
aF0.13173559137340465
aa.(lp0
S'Privilege Management System in Cloud Computing using OAuth'
p1
a(lp2
F0.47503478209841976
aF0.2566243265753371
aF0.18404577214898815
aF0.13984420989477667
aF0.09747512761819534
aF0.09139744612606564
aF0.08494420253030223
aF0.08494420253030223
aF0.05998998776736158
aF0.058049149901634775
aa.(lp0
S'Cloud Computing Adoption by Universities: Concepts and Review'
p1
a(lp2
F0.44052126694117993
aF0.19456813957954364
aF0.16063674055465907
aF0.13383369683446758
aF0.09991843037025952
aF0.09743540000856368
aF0.09495401857777536
aF0.09263773188546669
aF0.0921686216297224
aF0.08035347598849092
aa.(lp0
S'Ranked Keyword Search in Cloud Computing: An Innovative Approach'
p1
a(lp2
F0.3005589245990112
aF0.2567215304862914
aF0.18055299745846987
aF0.14919330204720097
aF0.12545211144471916
aF0.1158019490258946
aF0.1158019490258946
aF0.1043511278951185
aF0.08691274630498025
aF0.08527638504073416
aa.(lp0
S'Critical Analysis of Cloud Computing Using OpenStack'
p1
a(lp2
F0.2519183387980366
aF0.18091277323141264
aF0.12397855047835443
aF0.09642776148316456
aF0.09642776148316456
aF0.07786543397604244
aF0.07714220918653164
aF0.07714220918653164
aF0.07714220918653164
aF0.07304969924927504
aa.(lp0
S'Optimized ERP System Deployment on Mobile Cloud Computing with AOM'
p1
a(lp2
F0.24458404584272178
aF0.12280038881183901
aF0.11051944437652667
aF0.10685570006594954
aF0.10685570006594954
aF0.10075260975720572
aF0.08406291726586422
aF0.08357260006835403
aF0.07652958446653516
aF0.07327114256512035
aa.(lp0
S'Data Security in Cloud Computing'
p1
a(lp2
F1.341452115382239
aF0.7064158403872282
aF0.5386159125792228
aF0.3684010340110618
aF0.28757463981184955
aF0.2833369753741152
aF0.23812939887856147
aF0.2366193972577486
aF0.21637977767869546
aF0.16826197840036775
aa.(lp0
S'New Challenges for Security against Deduplication in Cloud Computing'
p1
a(lp2
F0.6424196472102214
aF0.5910436472506071
aF0.48138354455599347
aF0.2675378294040531
aF0.25527865177875037
aF0.25212239971878303
aF0.22429663608846087
aF0.22070577705929278
aF0.22070577705929278
aF0.18780826174318357
aa.(lp0
S'IDS: Survey on Intrusion Detection System in Cloud Computing'
p1
a(lp2
F0.15232091558349609
aF0.1248980379628244
aF0.09302673226264721
aF0.07740882972519478
aF0.07616045779174804
aF0.06773272600954543
aF0.06773272600954543
aF0.05457778488143893
aF0.05294859727303777
aF0.04440420226543634
aa.(lp0
S'A New Tier Based Approach for Clustered Content Centric Networks Implementing Cloud Computing'
p1
a(lp2
F0.16018108644658005
aF0.13339692127051464
aF0.09878820385637682
aF0.07601814272041087
aF0.07526720293819186
aF0.07094636128874034
aF0.05701977149236225
aF0.04700191604899175
aF0.04690199605687306
aF0.04656546678165015
aa.(lp0
S'Cloud Computing and Faults in Cloud Computing'
p1
a(lp2
F0.17338710163540352
aF0.12050011513893304
aF0.11009663489865038
aF0.10643143075824249
aF0.09760136109870987
aF0.09333996484982608
aF0.09101011294219176
aF0.07828513180953153
aF0.07701184840448082
aF0.07230006908335983
aa.(lp0
S'Design of the Integrated Logistics Information System Based on Cloud Computing'
p1
a(lp2
F0.1826531438461238
aF0.1403150505400607
aF0.131724333160057
aF0.12599718824005451
aF0.11269566546750306
aF0.10881575348004706
aF0.08877074626003839
aF0.08179184531317356
aF0.08077740696103963
aF0.06629432850341802
aa.(lp0
S'Usage of Multiple Clouds to increase Security in Cloud Computing'
p1
a(lp2
F0.4834592926108222
aF0.4591212477323414
aF0.40096588968624486
aF0.3677714115115993
aF0.33912217046904053
aF0.3378627557069505
aF0.28901088011908155
aF0.26733102773730666
aF0.16834445750185853
aF0.16834445750185853
aa.(lp0
S'Evolving E-Governance through Cloud Computing based environment'
p1
a(lp2
F0.6774182074631122
aF0.6687084615333997
aF0.5866903993436617
aF0.46263169171583773
aF0.32750908246837035
aF0.3000287217122476
aF0.2710103792227045
aF0.2710103792227045
aF0.26805726083627207
aF0.2552948637213261
aa.(lp0
S'Automatic Schedule Control for Distributed Software Development in Cloud Computing Environments '
p1
a(lp2
F1.043380976474318
aF0.2159926533661449
aF0.16882589152034966
aF0.16626728641669608
aF0.16362307014844854
aF0.13379900175569395
aF0.12961170402831404
aF0.12203542487077165
aF0.10065521303750205
aF0.0894793591060726
aa.(lp0
S'A Review Data Safeguard for Cloud Computing'
p1
a(lp2
F0.7754168591569458
aF0.5833317185658479
aF0.34727769437909783
aF0.3314045769311065
aF0.2786278566113728
aF0.27536642968565517
aF0.27415005704463524
aF0.26958461173968085
aF0.25197730853162736
aF0.23462156696335923
aa.(lp0
S'A Cloud-computing-based Resource Allocation Model for University Resource Optimization'
p1
a(lp2
F1.0233669051687417
aF0.5547831864081093
aF0.44435517826017334
aF0.3476208106706335
aF0.317977966627346
aF0.2519959936044995
aF0.2331838421933871
aF0.2331838421933871
aF0.22894413597168914
aF0.2252578041562741
aa.(lp0
S'An Effective Approach on Scheduling Algorithm in Cloud Computing'
p1
a(lp2
F0.8852241827693182
aF0.612829156992288
aF0.5360307758625419
aF0.48978408467241685
aF0.3615003454167991
aF0.3615003454167991
aF0.3436404973926905
aF0.3340246170724098
aF0.32462205890208523
aF0.28820329659279487
aa.(lp0
S'An Extension of Virtual Computing Laboratories: Scalable Virtual Desktop Infrastructure on Cloud Computing'
p1
a(lp2
F0.787200856512209
aF0.438114704336787
aF0.35240940172083235
aF0.3353432434074995
aF0.24395023309662003
aF0.23429205034011405
aF0.22403592835403882
aF0.20641321048336855
aF0.15865955166303902
aF0.15835222086917805
aa.(lp0
S'Introduction to Secure Cloud Computing mini-track'
p1
a(lp2
F0.17034720862365393
aF0.14721984567091523
aF0.10368960524918065
aF0.09998640506170992
aF0.09392078402576336
aF0.09092075190236358
aF0.08572357998031155
aF0.08172821461537927
aF0.07406400374941474
aF0.0647619456103534
aa.(lp0
S'Automatic Resource Scaling for Medical Cyber-Physical Systems Running in Private Cloud Computing Architecture'
p1
a(lp2
F0.30703105088425925
aF0.22705369333942407
aF0.19347468887513886
aF0.1421737098930443
aF0.12629861692005462
aF0.09649781966925522
aF0.096369567802699
aF0.09567429669649723
aF0.07322293307108596
aF0.0709060416583746
aa.(lp0
S'A Novel Cloud Computing Security Model to Detect and Prevent DoS and DDoS Attack'
p1
a(lp2
F0.9107321829017418
aF0.6873850968907947
aF0.5885992147028961
aF0.5062776462129805
aF0.48016251165730295
aF0.3992596071760904
aF0.32672181187005517
aF0.28437882391003005
aF0.2663801641688889
aF0.24284862704525084
aa.(lp0
S'Control strategies for predictable brownouts in cloud computing'
p1
a(lp2
F0.606040288186802
aF0.5651990595682121
aF0.2655080891343249
aF0.17156824479175783
aF0.1689065256326325
aF0.14446332344799395
aF0.14037068137413805
aF0.13455279713538565
aF0.11493419529320785
aF0.1144484331860713
aa.(lp0
S'E-LEARNING DEVELOPMENT AS PUBLIC INFRASTRUCTURE OF CLOUD COMPUTING '
p1
a(lp2
F0.34945834567517026
aF0.2741618553166918
aF0.21180267470996517
aF0.17167183699553304
aF0.1653929087699903
aF0.16231905746908307
aF0.13224756742962826
aF0.1303810424547735
aF0.1082278972363143
aF0.10449590077988968
aa.(lp0
S'Influence of Cloud-Based Computing on User Productivity'
p1
a(lp2
F0.3511493264538326
aF0.22667346554020507
aF0.20707918559420294
aF0.17263523962855895
aF0.15631744763008537
aF0.13819472243021233
aF0.13225721563452314
aF0.09623748753985574
aF0.08631919861442582
aF0.0805645853734641
aa.(lp0
S'A Survey on Approaches for Interoperability and Portability of Cloud Computing Services'
p1
a(lp2
F0.6159876740408914
aF0.6106312594840141
aF0.4365880413434908
aF0.32125519661168406
aF0.29320123303720647
aF0.289941956366906
aF0.276556621554745
aF0.26431276016470795
aF0.24889521647664065
aF0.23568224050260195
aa.(lp0
S'Enhancing Data Storage Security in Cloud Computing Through Steganography'
p1
a(lp2
F0.3418144967677475
aF0.22446836592918396
aF0.18807138556491992
aF0.1870569716076533
aF0.13211860377517037
aF0.117180503083052
aF0.09013824930326943
aF0.08920722176663837
aF0.08828161998562649
aF0.08728477550438546
aa.(lp0
S'Virtual Machine-Based Resource Management System for Cloud Computing Services'
p1
a(lp2
F0.1743257721353464
aF0.11609518483243295
aF0.10659739858202669
aF0.08284572652361566
aF0.07147964276752028
aF0.07144319066611259
aF0.06126826522930309
aF0.05804759241621647
aF0.053582392999584436
aF0.05356946665686108
aa.(lp0
S'Analysis of Cloud Computing Security Issues in Software as a Service'
p1
a(lp2
F0.16893425340951093
aF0.14021341489171832
aF0.07303952387262651
aF0.07247701410074944
aF0.07001313882742324
aF0.05436587509197807
aF0.05382647498404666
aF0.053326947273806664
aF0.05331642416606855
aF0.04918807955289941
aa.(lp0
S'ENHANCING SECURITY IN CLOUD COMPUTING STRUCTURE BY HYBRID ENCRYPTION'
p1
a(lp2
F0.2271549651788746
aF0.12395447425654461
aF0.10413604514337636
aF0.08808231992406217
aF0.08761733248938011
aF0.056325428028887216
aF0.053818253083884125
aF0.050092592595528625
aF0.050092592595528625
aF0.050092592595528625
aa.(lp0
S'Towards on Cloud Computing Standardization'
p1
a(lp2
F0.3064770749012835
aF0.19106103578511072
aF0.1452395221297141
aF0.10255512938917342
aF0.0795647785636949
aF0.0763821874211471
aF0.07421396216582285
aF0.0695772490834666
aF0.05872607817270597
aF0.05505569828691185
aa.(lp0
S'An Energy Efficient Resource Utilization Approach for Cloud Computing'
p1
a(lp2
F0.448461286977392
aF0.36221490135562834
aF0.11143942338989112
aF0.10540181636146513
aF0.09698618727077443
aF0.09431180387820044
aF0.08803834407949301
aF0.08734100601767592
aF0.08606842705384592
aF0.0854409457058022
aa.(lp0
S'Concept Design and Case Studies of Testbed based on Cloud Computing for Security Research'
p1
a(lp2
F0.28646624010759797
aF0.25502478524663014
aF0.19512917804430585
aF0.19512917804430585
aF0.1781979465117755
aF0.16867675729251377
aF0.13265550432060216
aF0.11209548525949485
aF0.1057419841266515
aF0.1010485892074065
aa.(lp0
S'An Approach of Risk Management for Multimedia Streaming Service in Cloud Computing'
p1
a(lp2
F0.3268035939161634
aF0.13668945221002993
aF0.13558074947838542
aF0.12794099165243505
aF0.1221405277766436
aF0.10615575867745246
aF0.10579554611664817
aF0.10533291711050023
aF0.1036609660452542
aF0.09824600016828877
aa.(lp0
S'On the Scheduling Algorithm for Adapting to Dynamic Changes of User Task in Cloud Computing Environment'
p1
a(lp2
F0.8610547677214337
aF0.7416893488831366
aF0.7000201074586769
aF0.4819337394494998
aF0.3646979630842625
aF0.3538309960510671
aF0.32943335441158783
aF0.3234439192842776
aF0.32002337669720893
aF0.30196697432291514
aa.(lp0
S'Environmental Conditions\xe2\x80\x99 Big Data Management and Cloud Computing Analytics for Sustainable Agriculture'
p1
a(lp2
F0.3335365578693399
aF0.2230569328158487
aF0.18485361049925256
aF0.17925247055743915
aF0.1775895714935315
aF0.15062146040679839
aF0.15062146040679839
aF0.14039729616046356
aF0.09242680524962628
aF0.09076503287606072
aa.(lp0
S'Evaluating Various Aspects of Cloud Computing Vendors with Comparison'
p1
a(lp2
F0.27012070129758203
aF0.24988087396214695
aF0.21007817160632752
aF0.19538262535233072
aF0.17243863640101778
aF0.15443370387090039
aF0.14616046973495928
aF0.1284053129856407
aF0.12372837072847512
aF0.11244639328296613
aa.(lp0
S'TCLOUD: A Trusted Storage Architecture for Cloud Computing'
p1
a(lp2
F0.448656945789724
aF0.3293604658248948
aF0.24588219666899788
aF0.1887348129216013
aF0.15643900056350862
aF0.1435702226527117
aF0.1080930608907148
aF0.10767766698953375
aF0.09568463621565952
aF0.08460388120606223
aa.(lp0
S'NDM-Cache: A Network Cache for Cloud Computing System'
p1
a(lp2
F0.3924934101692774
aF0.2941005913342243
aF0.2851103376442793
aF0.2561478857326439
aF0.23782621013368793
aF0.19243618939152948
aF0.1494606470126598
aF0.1494606470126598
aF0.1462623135344878
aF0.14530896237341925
aa.(lp0
S'A PROFICIENT MODEL FOR HIGH END SECURITY IN CLOUD COMPUTING'
p1
a(lp2
F0.26256883223813754
aF0.25932969278691975
aF0.21778910827749237
aF0.1389173151841078
aF0.1248057254670989
aF0.1248057254670989
aF0.12155265078609433
aF0.09536230639136022
aF0.08099363817472811
aF0.07973414994056906
aa.(lp0
S'Mobile Cloud Computing: The potential, Challenges & Applications'
p1
a(lp2
F0.1333885268349035
aF0.1175510945532465
aF0.10166982539225031
aF0.09646534595101734
aF0.09258722319781135
aF0.08572891036834383
aF0.08336782927181467
aF0.07842070985232151
aF0.07842070985232151
aF0.07691311526550072
aa.(lp0
S'Implementation and Management of framework for PaaS in Cloud Computing'
p1
a(lp2
F0.3306637017788832
aF0.3181015096218768
aF0.16631465613620977
aF0.13698924787982303
aF0.09447534336539519
aF0.09082925039817523
aF0.08502780902885568
aF0.08030404186058593
aF0.07558027469231615
aF0.07558027469231615
aa.(lp0
S'Admission Control for Aggregate Flow in Cloud Computing'
p1
a(lp2
F0.2687743672272873
aF0.24959441058841716
aF0.15065216188670194
aF0.12972615832475123
aF0.12374999012121946
aF0.12234245935256387
aF0.12187360116910578
aF0.12069836114196979
aF0.10423673922319338
aF0.07532608094335097
aa.(lp0
S'Security Issues in SaaS Delivery Model of Cloud Computing'
p1
a(lp2
F0.46499695480076925
aF0.32187553734151325
aF0.21542971968654362
aF0.16935620033856297
aF0.16020181113107307
aF0.16004398293423863
aF0.15264144208935856
aF0.1451978004676049
aF0.13086089692954853
aF0.12576467076756553
aa.(lp0
S'ENERGY EFFICIENT DATA TRAFFIC MANAGEMENT IN MOBILE CLOUD COMPUTING'
p1
a(lp2
F0.2157433981864278
aF0.20526721021716357
aF0.08803150880433157
aF0.08803150880433157
aF0.08087585611423327
aF0.07740411996001609
aF0.06606824584031616
aF0.060640825324363525
aF0.05676950172792285
aF0.054861713668528225
aa.