(lp0
S'Mixed-Initiative Cyber Security: Putting humans in the right loop\r'
p1
a(lp2
F0.4579099486123349
aF0.4158638538885049
aF0.4158638538885049
aF0.4113941870002064
aF0.39198650342600705
aF0.36015003614267654
aF0.3502011401166357
aF0.2869481293673695
aF0.25071217985622785
aF0.2314424672750154
aa.(lp0
S'Crypticsteganography A New Data Hiding Technique with Multilayer Security System.\r'
p1
a(lp2
F0.36274574844554264
aF0.16231031251656255
aF0.10381230152778406
aF0.08579361143277277
aF0.08300758156066483
aF0.07546143778242258
aF0.07256829313001825
aF0.06791529400418032
aF0.06791529400418032
aF0.06791529400418032
aa.(lp0
S'WIRELESS SENSOR NETWORK SECURITY ANALYSIS\r'
p1
a(lp2
F0.4369051933345206
aF0.32673627602545435
aF0.2910685777203446
aF0.2785466295670043
aF0.27713072337324973
aF0.26565277221032585
aF0.2463332885949393
aF0.23388528890425692
aF0.20679711279655286
aF0.18848553595699763
aa.(lp0
S'A 2D-DCT Image Processing in Matlab and Voice Informatics Based Remote Home Monitoring and Security System\r'
p1
a(lp2
F0.4512650960924748
aF0.3128151617550743
aF0.27114957304870485
aF0.2570053579153382
aF0.24893156115970758
aF0.23120651216628596
aF0.2254839315021134
aF0.22532225224240243
aF0.20058119305380365
aF0.17785116320483535
aa.(lp0
S'Mixed-Initiative Cyber Security: Putting humans in the right loop\r'
p1
a(lp2
F0.4579099486123349
aF0.4158638538885049
aF0.4158638538885049
aF0.4113941870002064
aF0.39198650342600705
aF0.36015003614267654
aF0.3502011401166357
aF0.2869481293673695
aF0.25071217985622785
aF0.2314424672750154
aa.(lp0
S'Crypticsteganography A New Data Hiding Technique with Multilayer Security System.\r'
p1
a(lp2
F0.36274574844554264
aF0.16231031251656255
aF0.10381230152778406
aF0.08579361143277277
aF0.08300758156066483
aF0.07546143778242258
aF0.07256829313001825
aF0.06791529400418032
aF0.06791529400418032
aF0.06791529400418032
aa.(lp0
S'WIRELESS SENSOR NETWORK SECURITY ANALYSIS\r'
p1
a(lp2
F0.4369051933345206
aF0.32673627602545435
aF0.2910685777203446
aF0.2785466295670043
aF0.27713072337324973
aF0.26565277221032585
aF0.2463332885949393
aF0.23388528890425692
aF0.20679711279655286
aF0.18848553595699763
aa.(lp0
S'A 2D-DCT Image Processing in Matlab and Voice Informatics Based Remote Home Monitoring and Security System\r'
p1
a(lp2
F0.4512650960924748
aF0.3128151617550743
aF0.27114957304870485
aF0.2570053579153382
aF0.24893156115970758
aF0.23120651216628596
aF0.2254839315021134
aF0.22532225224240243
aF0.20058119305380365
aF0.17785116320483535
aa.(lp0
S'Privacy Enhanced Authentication Protocol for RFID Tag System Security \r'
p1
a(lp2
F0.6110084673700328
aF0.395396643994518
aF0.30277067588225515
aF0.27852104353244517
aF0.20835689062680018
aF0.20600425534830116
aF0.13114346458433013
aF0.11476700407083225
aF0.1131207035510906
aF0.1131207035510906
aa.(lp0
S'Security Analysis of Vancouver Pay-By-Phone Parking System \r'
p1
a(lp2
F0.2533379881915465
aF0.21424338339276328
aF0.17241057529702475
aF0.13378507595665026
aF0.12321046330296755
aF0.11868643383333714
aF0.09740254643645235
aF0.08054572769919773
aF0.07846110076995966
aF0.07389024655586773
aa.(lp0
S'Security System for Car using RFID, Thumb Impression, Steering wheel Lock Based on ARM 7\r'
p1
a(lp2
F0.1953912118912373
aF0.14824214683749296
aF0.11300402566531204
aF0.09882809789166197
aF0.09053571173114512
aF0.08254726657839702
aF0.07557442779950622
aF0.07443875256654954
aF0.06976101027646728
aF0.06722378215253884
aa.(lp0
S'On the Security of Wireless Network Access with Enhancements\r'
p1
a(lp2
F0.8491538534259623
aF0.5711123261979923
aF0.47843181712200233
aF0.43334400189584504
aF0.28444809141041716
aF0.2249997422840082
aF0.1927772942295418
aF0.17033174640992754
aF0.16687489500170338
aF0.15884640269416736
aa.(lp0
S'2-Leyer Security System for Hiding Sensitive Text Data on Personal Computers \r'
p1
a(lp2
F0.6530234077044226
aF0.34703829209041837
aF0.29531638300432994
aF0.29521494556463695
aF0.27549421727442946
aF0.24585645573664325
aF0.24120366170073956
aF0.22943615923059554
aF0.22685748435301553
aF0.21717717479325596
aa.(lp0
S'Security System in Speech Recognition\r'
p1
a(lp2
F1.4043244612829082
aF0.7485277497277918
aF0.4742697685462276
aF0.42095477360983047
aF0.37430069388005166
aF0.3253794876584458
aF0.30775321972639724
aF0.2937453708027636
aF0.2937453708027636
aF0.2911389468797825
aa.(lp0
S'A SMART HOME SECURITY SYSTEM BASED ON 3G \r'
p1
a(lp2
F0.16655902585849658
aF0.1299138666780849
aF0.1225204340765984
aF0.10945307413558349
aF0.09615662555128392
aF0.0951765862048552
aF0.08162155515241626
aF0.07596321239553103
aF0.07525540878674429
aF0.07485785008125927
aa.(lp0
S'Security of Wireless Sensor Network\r'
p1
a(lp2
F1.2873505240665146
aF0.6115954694206831
aF0.3892643804880525
aF0.28234217373870735
aF0.2233844495055203
aF0.2164655511033684
aF0.20704804894196513
aF0.1990664095496965
aF0.1933765953130565
aF0.13475783724513307
aa.(lp0
S'Wireless Security System Based on FPGA\r'
p1
a(lp2
F0.31907019011382226
aF0.2658918250948518
aF0.1286135374840684
aF0.12266625596827156
aF0.09893290321342219
aF0.09306213878319815
aF0.08612607653555575
aF0.07455882142564892
aF0.05982566064634167
aF0.055115592865887894
aa.(lp0
S'SMART GIRLS SECURITY SYSTEM \r'
p1
a(lp2
F0.14821881851677451
aF0.13096132669398924
aF0.11453272339932576
aF0.08352411498154362
aF0.08088787825216982
aF0.080846628281877
aF0.077036074525876
aF0.06933246707328841
aF0.06737219023489749
aF0.05459723008491234
aa.(lp0
S'RFID Based Security and Access Control System \r'
p1
a(lp2
F0.5456490598342005
aF0.2045259384458548
aF0.16968819661778822
aF0.1623004491343979
aF0.11078588790722534
aF0.1107368734052331
aF0.09829935323512386
aF0.09419319996609994
aF0.09072319895639513
aF0.08879984355979954
aa.(lp0
S'Will Cyber-Insurance Improve Network Security? A Market Analysis\r'
p1
a(lp2
F0.9176277852164721
aF0.6107267190978275
aF0.42478005635113836
aF0.36565803563818977
aF0.35408431579548033
aF0.35361271706717795
aF0.34717719618807497
aF0.3287979082110865
aF0.3198874610804179
aF0.2878584535875111
aa.(lp0
S'Security and Privacy in E-voting and RFID System Based on Universal Re-encryption Mix-net\r'
p1
a(lp2
F0.6738794685080082
aF0.54438318375597
aF0.3556815888461095
aF0.2357908918772216
aF0.20880277836263578
aF0.20256985960554216
aF0.1805895492588528
aF0.17988374792717632
aF0.1440284748690237
aF0.1397847701112812
aa.(lp0
S'Real Time Fleet Monitoring and Security System using GSM Network  \r'
p1
a(lp2
F0.28970041801005925
aF0.27732986829315365
aF0.18068954501305431
aF0.1604698688147537
aF0.14148159949328476
aF0.11772665833176413
aF0.09875068850138688
aF0.09842786574351885
aF0.09106035381736459
aF0.08088787825216982
aa.(lp0
S'Cyber Assessment Methods for SCADA Security\r'
p1
a(lp2
F0.8079303484383394
aF0.6189511934187506
aF0.2818369265365626
aF0.2242045114592367
aF0.2078701475545172
aF0.1881151259050462
aF0.1842786507678553
aF0.17525116458076262
aF0.1645167945866638
aF0.16440487381299487
aa.(lp0
S'A Calculus for the Analysis of Wireless Network Security Protocols\r'
p1
a(lp2
F0.49462628339030684
aF0.39833460471917453
aF0.38094472751205355
aF0.33386842532659594
aF0.28357212971119944
aF0.26971998955232984
aF0.25581689730736445
aF0.249395307744417
aF0.24797569810270675
aF0.24579261759928758
aa.(lp0
S'Security Augmenting Scheme for Bus Information System based on Smart Phone\r'
p1
a(lp2
F2.8006318622854645
aF0.9332242331233491
aF0.7543209745267887
aF0.6621884446618561
aF0.6397037942214198
aF0.5149070259169354
aF0.45691989979814407
aF0.3784667488677215
aF0.34375383932889597
aF0.32719847586847045
aa.(lp0
S'An Automatic RFID and Wireless Sensing System for Hazardous Material Inventory and Security Monitoring\r'
p1
a(lp2
F0.5866768636663051
aF0.27234873545563476
aF0.25547481953079887
aF0.23782919811648404
aF0.1860212187194603
aF0.17895411615494286
aF0.14455432881876
aF0.14273304881300636
aF0.13819368177142993
aF0.12773740976539943
aa.(lp0
S'Discussion and research of computer network security\r'
p1
a(lp2
F0.5398123506660736
aF0.43130789310916884
aF0.275511443984301
aF0.14661414443318202
aF0.12462254903901764
aF0.10638850139523331
aF0.09774464334300782
aF0.09219875053967194
aF0.08549906371072583
aF0.08414291942570988
aa.(lp0
S'Efficient Authorized Access Security System Control Using ATMEL 89C55 & Mobile Bluetooth \r'
p1
a(lp2
F0.30057604937567234
aF0.2325210948000484
aF0.19500671788565577
aF0.18050643037689226
aF0.17866979386527596
aF0.14595669815408663
aF0.1449695020926792
aF0.1377864227612533
aF0.13449498733964518
aF0.12741630379545335
aa.(lp0
S'Model Checking Wireless Sensor Network Security Protocols: TinySec + LEAP\r'
p1
a(lp2
F1.2472681861285044
aF0.6218773773091416
aF0.5410684525740554
aF0.37387510854914663
aF0.297787455369417
aF0.2970520377973731
aF0.2715994207942514
aF0.2505229422280563
aF0.209513455332547
aF0.20265335008726218
aa.(lp0
S'RFID-GSM imparted School children Security System\r'
p1
a(lp2
F0.3819295335914719
aF0.3058043608981943
aF0.22049540083631372
aF0.20078889886009013
aF0.15099258748143624
aF0.13288204388375974
aF0.10330433547681249
aF0.09546687987360078
aF0.09264299655290271
aF0.08656896660839215
aa.(lp0
S'ID SECURITY SYSTEM IN HIGH TRAFFIC FOR MOBILE ADHOC NETWORK USING ACKNOWLEDGEMENTS\r'
p1
a(lp2
F0.9222707095458359
aF0.6153730035179711
aF0.5909612838671896
aF0.5647944004890968
aF0.5585783861723891
aF0.5451249437556457
aF0.4693687958209109
aF0.4615026413185972
aF0.40462882423099467
aF0.3878853720975009
aa.(lp0
S'RFID AND GSM BASED CAMPUS SECURITY SYSTEM\r'
p1
a(lp2
F0.40869797143862313
aF0.22325997083160182
aF0.12586268194837158
aF0.09803551368709282
aF0.0906825428583514
aF0.08247651088560032
aF0.07252294076589182
aF0.06283924638902882
aF0.06182583807644358
aF0.05924211747793767
aa.(lp0
S'Design and Development of SMS Based Wireless Home Appliance Control and Security System\r'
p1
a(lp2
F0.7412870439640202
aF0.3883369951103281
aF0.31155394652507107
aF0.2758805016607231
aF0.26906283058423264
aF0.2334112307625946
aF0.21785017735635107
aF0.20617721712008916
aF0.20617721712008916
aF0.19483002010253206
aa.(lp0
S'Systematic Literature Review: Security Challenges of Mobile Banking and Payments System\r'
p1
a(lp2
F0.9800059274400322
aF0.6931527901526006
aF0.4541793998277087
aF0.2652019212606173
aF0.2638207889930058
aF0.19587214921609727
aF0.17716679055008316
aF0.17588019412012587
aF0.1699636627995949
aF0.14081940146939004
aa.(lp0
S'Model Checking Wireless Sensor Network Security Protocols: TinySec + LEAP + TinyPK \r'
p1
a(lp2
F0.8083111482883496
aF0.41257548193884513
aF0.36167183681452997
aF0.35644276330770974
aF0.33679631178681235
aF0.22946476429208765
aF0.18745514471641642
aF0.17338626269580995
aF0.1678102636580243
aF0.149268580412282
aa.(lp0
S'Bluetooth Based Home Automation and Security System\r'
p1
a(lp2
F0.4189219382826344
aF0.29879205870581016
aF0.24264747006246398
aF0.2079194780626824
aF0.18806033955564824
aF0.1774077848565748
aF0.15326906635549253
aF0.14005877751834853
aF0.10728253096609403
aF0.09804114426284397
aa.(lp0
S'GSM Based Car Security System\r'
p1
a(lp2
F0.3111054769427296
aF0.175359013813979
aF0.14468264362809252
aF0.1265513804512798
aF0.10292242067355474
aF0.09530416164619614
aF0.08958114783090995
aF0.08873192699596266
aF0.06568936896405873
aF0.06129041660201101
aa.(lp0
S'Security Aspect for Bus Information System based on Smart Phone\r'
p1
a(lp2
F0.8651184231948806
aF0.38018866602107365
aF0.31376361583674794
aF0.22908977848944498
aF0.1769647664622079
aF0.17508349040848775
aF0.15926819959517824
aF0.14852336653092174
aF0.10693445336391273
aF0.10496895021759133
aa.(lp0
S'Ethernet Based Intelligent Security System\r'
p1
a(lp2
F0.3718316560231041
aF0.16089110543453464
aF0.1587752391461972
aF0.1468840377413875
aF0.12821440474111465
aF0.12184284606595279
aF0.1216218652511063
aF0.11819563939470984
aF0.11679106059468135
aF0.11675763952477208
aa.(lp0
S'Introducing the Information Security Management System in Cloud Computing Environment\r'
p1
a(lp2
F0.8096363859249586
aF0.783752687611474
aF0.7680082286009008
aF0.7247478140381712
aF0.6799562931217525
aF0.528200868066413
aF0.5133403758464896
aF0.47824928426356067
aF0.4629293325859791
aF0.43600130413199795
aa.(lp0
S'Human Body Motion Detective Home Security System \r'
p1
a(lp2
F0.8859709660441403
aF0.3655532076647149
aF0.3012659570822596
aF0.23465649987667356
aF0.20894256677803236
aF0.2020340846825733
aF0.199920975300347
aF0.17433628752234637
aF0.1578135783266125
aF0.15571699170738176
aa.(lp0
S'Design and Development of Advanced Security System\r'
p1
a(lp2
F0.3058325027572596
aF0.18490340893586898
aF0.14250074816447383
aF0.12420697884223512
aF0.11092336011487092
aF0.10282299661666486
aF0.09672783305822663
aF0.09490476628751846
aF0.08883815364897119
aF0.08775490604797824
aa.(lp0
S'An Electronic Security Monitoring System Using GSM Communication \r'
p1
a(lp2
F0.17070307817650704
aF0.11720316040596594
aF0.09669609501946486
aF0.08738874848915344
aF0.06889015468366616
aF0.05260940052459869
aF0.04759983020235773
aF0.046550884337724245
aF0.043761684074423324
aF0.04195782775488389
aa.(lp0
S'Automated Gun Security System\r'
p1
a(lp2
F0.5310800341384878
aF0.3079062969230568
aF0.27438129761120394
aF0.2288598930433705
aF0.22615901678616782
aF0.2215152767764695
aF0.19449113979251825
aF0.16807339674903643
aF0.15648682868987943
aF0.14620016753247692
aa.(lp0
S'A Review: Real Time School Bus Security System with Biometrics, GPS and GPRS using ARM Controller \r'
p1
a(lp2
F0.19899733300086658
aF0.1170572547063921
aF0.11595082017389868
aF0.10715664485799502
aF0.09889438172448267
aF0.0954053304739889
aF0.07534779711349851
aF0.07166100527180196
aF0.07118879141403195
aF0.06654236203810181
aa.(lp0
S'A security system for paper or plastic-based items using chipless RFID\r'
p1
a(lp2
F0.16215224710973947
aF0.13736577114438922
aF0.057817248481668526
aF0.055501293779666956
aF0.052356517559586285
aF0.05112413037720447
aF0.04578859038146307
aF0.04293838676148346
aF0.039267388169689714
aF0.039267388169689714
aa.(lp0
S'ICU Security System Using Biometric Method\r'
p1
a(lp2
F0.27373613815005093
aF0.16776711196884697
aF0.12323939979311735
aF0.11012995340130369
aF0.06955576004292864
aF0.06955576004292864
aF0.05096545904061425
aF0.05014231330741282
aF0.04687589069301675
aF0.04637050669528576
aa.(lp0
S'Role of authorization in wireless network security\r'
p1
a(lp2
F0.06590391962130449
aF0.04842390917786848
aF0.043895334974900696
aF0.04304347482477198
aF0.037663040471675485
aF0.03350020493172857
aF0.0326938125545703
aF0.032282606118578985
aF0.02861626746785141
aF0.02823287523520705
aa.(lp0
S'An RFID Agricultural Product and Food Security Tracking System Using GPS and Wireless Technologies\r'
p1
a(lp2
F3.9274111011060326
aF1.4008247612706566
aF0.9438303385067746
aF0.5531650152375517
aF0.4303243473215984
aF0.38537732797029767
aF0.37373630707810385
aF0.35710148709413647
aF0.32579663936879494
aF0.31727568783679305
aa.(lp0
S'Design of Banking Security System Using Mems And Rfid Technology\r'
p1
a(lp2
F0.27755790045811257
aF0.19147975641161435
aF0.1512536018606888
aF0.1028739700203551
aF0.10144742746102499
aF0.09471242825801268
aF0.09203408152827791
aF0.09183254398684677
aF0.08893234311039509
aF0.05596814185631122
aa.(lp0
S'A Study on the Integrated Security System based Real-time Network Packet Deep Inspection\r'
p1
a(lp2
F0.6117191870664939
aF0.4061663676001847
aF0.3247373728872319
aF0.3205645687942019
aF0.2938375985486985
aF0.27051950885808707
aF0.24063156103509967
aF0.21186016164218802
aF0.19239366571640976
aF0.18302080409551097
aa.(lp0
S'Information Systems Security Assessment Based on System Dynamics\r'
p1
a(lp2
F2.139512384058328
aF0.8861776745433537
aF0.8013677351724168
aF0.6926782029088099
aF0.679457135085404
aF0.6510110332469945
aF0.6227537060107446
aF0.5816710794331889
aF0.4718259381768481
aF0.44193472906316045
aa.(lp0
S'Harmonization of Commercial and Industrial Policy as a Tool of Economic System Security Assurance\r'
p1
a(lp2
F0.38778275646496746
aF0.15609744105736484
aF0.14651422144464016
aF0.12489008215886443
aF0.10659548847454405
aF0.08937401155173239
aF0.07136576123363682
aF0.06690540115653451
aF0.06690540115653451
aF0.06491045332972084
aa.(lp0
S'Artificial Railway Safety and Security Systems\r'
p1
a(lp2
F0.3553419912020198
aF0.2222563215264637
aF0.13970710765207617
aF0.13178316405011278
aF0.09529621464185262
aF0.09259316958350348
aF0.08807622004152628
aF0.08614273531125279
aF0.08534071694464525
aF0.08503910900561158
aa.(lp0
S'A Cumulative Security Metric for an Information Network\r'
p1
a(lp2
F0.2903176213881661
aF0.09410958411735681
aF0.09292794382497144
aF0.08671596202379216
aF0.0824999934141463
aF0.07086396827634266
aF0.06273972274490454
aF0.06273972274490454
aF0.05918930640544098
aF0.05800772729961027
aa.(lp0
S'Advanced Mobile Security System Operated by Bioelectrical Sensor\r'
p1
a(lp2
F0.8205335950870646
aF0.579018046344457
aF0.4588078427900148
aF0.3548387456509193
aF0.26122781457255445
aF0.2415155487426077
aF0.2194554351962898
aF0.21121833627578124
aF0.19318399951787113
aF0.18887754452947525
aa.(lp0
S'Review Paper On To Study and Enhance Coastal Security System Using GIS/GPS Tool\r'
p1
a(lp2
F0.34936390277376567
aF0.2785084389526644
aF0.15499947799117772
aF0.154726910529258
aF0.14347404430894833
aF0.1402376229443989
aF0.1374861670251394
aF0.12926556627740074
aF0.12378152842340642
aF0.11801450045553605
aa.(lp0
S'Remote Monitoring and Control of Intelligent Security Door System with SMS Alert \r'
p1
a(lp2
F0.314957251347736
aF0.23618746323616435
aF0.1891012575505735
aF0.15434348591455374
aF0.13502496774049694
aF0.1322944164981889
aF0.1322944164981889
aF0.12011498331101114
aF0.11237436933243948
aF0.10816326782356245
aa.(lp0
S'Computer Monitoring and Security System Using Bluetooth Technology \r'
p1
a(lp2
F1.352710045865345
aF0.66602203287142
aF0.648795995699566
aF0.5746831430279208
aF0.4384341211040654
aF0.2935775849134664
aF0.2559208816537949
aF0.24620299532976714
aF0.2310526183026557
aF0.20938981226219583
aa.(lp0
S'DESIGN AND` DEVELOPMENT OF RFID BASED INTELLIGENT SECURITY SYSTEM\r'
p1
a(lp2
F0.30602262322181223
aF0.14025406309251529
aF0.09933915181120226
aF0.0991962596499215
aF0.08697032208415527
aF0.07539421438279904
aF0.06172481546520756
aF0.06047174971786329
aF0.05881553238924113
aF0.05881553238924113
aa.(lp0
S'Design of Intelligent Car Security System\r'
p1
a(lp2
F0.16097190181363483
aF0.10943843142189527
aF0.09791882128846759
aF0.08346691205151437
aF0.06925965408208683
aF0.06646961872317986
aF0.057545234049670865
aF0.05703583477316369
aF0.05663826174924189
aF0.05192293375223194
aa.(lp0
S'Wireless Network Security: Vulnerabilities, Threats and Countermeasures\r'
p1
a(lp2
F0.5256815603693518
aF0.2928655195223946
aF0.2387803727551539
aF0.1997329890777613
aF0.19859368729498245
aF0.18199979317292342
aF0.1786903306231915
aF0.1595142796770501
aF0.15695609518008025
aF0.12748521496903653
aa.(lp0
S'Security Issues and Attacks in Wireless Sensor Network\r'
p1
a(lp2
F0.27397849575964606
aF0.19527990825905117
aF0.16670411419675626
aF0.14528445755610178
aF0.13631163011613115
aF0.1355872602822976
aF0.1051610766671982
aF0.09293974780645306
aF0.07558027469231615
aF0.07211309155394104
aa.(lp0
S'A ZIGBEE AND EMBEDDED BASED SECURITY MONITORING AND CONTROL SYSTEM\r'
p1
a(lp2
F0.4506610359763747
aF0.3466623353664421
aF0.2863318084983144
aF0.13269623767373862
aF0.12545484391158918
aF0.10269964716244127
aF0.09768967584060138
aF0.0925787704700502
aF0.08088787825216982
aF0.08065756821772677
aa.(lp0
S'SLA Aware Dynamic Reconfiguration for the Safe Building Security System\r'
p1
a(lp2
F1.1351754698737717
aF1.116699438428426
aF0.8269958244547878
aF0.6007108185561545
aF0.5679976563211298
aF0.4601716202267956
aF0.44167350064760474
aF0.44123246103757313
aF0.41085322807175345
aF0.3708586660470695
aa.(lp0
S'Industrial Safety Security System Based On Gas Sensor with SMS Based Alerts\r'
p1
a(lp2
F0.2511484977687215
aF0.18049559740992183
aF0.10494199948167804
aF0.09483666982555214
aF0.09172891768857977
aF0.0874516662347317
aF0.06996133298778535
aF0.0653597737917323
aF0.06118494827454977
aF0.05161813981670352
aa.(lp0
S'Implementation of Medical Test Security System\r'
p1
a(lp2
F0.12015952917258599
aF0.09049094723014188
aF0.08748810442899618
aF0.0819782705397288
aF0.07781818437266116
aF0.04999320253085496
aF0.048580490045836915
aF0.04292389531164026
aF0.03749490189814122
aF0.03749490189814122
aa.(lp0
S'Embedded Security System using RFID & GSM \r'
p1
a(lp2
F0.46312018601529487
aF0.4419569034786277
aF0.3530335097208684
aF0.27954101318040325
aF0.2288828935346223
aF0.1857159636018093
aF0.1796420793991743
aF0.15020114141036592
aF0.14045635575364052
aF0.1393776053200198
aa.(lp0
S'Vlsi Based Accident Information and Car Security System\r'
p1
a(lp2
F0.4054621115605892
aF0.1903189503243582
aF0.16943025962362324
aF0.16825298506936015
aF0.11546231621006803
aF0.10493288253314342
aF0.10372606920704995
aF0.08803283169556089
aF0.08274736970624269
aF0.08212885527673518
aa.(lp0
S'Privacy and Security Issues for Healthcare System with Embedded RFID System on Internet of Things\r'
p1
a(lp2
F0.20850456023236422
aF0.20663029329318852
aF0.161101584601469
aF0.09499235170316307
aF0.0851877832561791
aF0.06640794525869542
aF0.05634141435127891
aF0.056197187777023115
aF0.05543881277305157
aF0.051828806079504054
aa.(lp0
S'Wireless Security Car Using RFID System\r'
p1
a(lp2
F0.600843210220585
aF0.14504827728312691
aF0.1177536177576222
aF0.09192228780698633
aF0.07754748784425418
aF0.0701724751916952
aF0.0651042140195266
aF0.0632472143646165
aF0.061174787813627896
aF0.05847278409884417
aa.(lp0
S'SMS Based Wireless Home Appliance Control System (HACS) for Automating Appliances and Security\r'
p1
a(lp2
F0.46739705397990505
aF0.3070599422186444
aF0.3008440506281537
aF0.2955527306442248
aF0.27366880903891244
aF0.23840035888261762
aF0.17067217289923026
aF0.13930493416988785
aF0.11175523545550371
aF0.09594682124347777
aa.(lp0
S'Image Steganography Based Audio Security System\r'
p1
a(lp2
F0.47576349076042157
aF0.28231455546835743
aF0.2204107158333165
aF0.19461553051355593
aF0.19371486508776092
aF0.17410144199426345
aF0.15750470153190896
aF0.15035361421330026
aF0.13476251794634564
aF0.132652044266217
aa.(lp0
S'Combined RFID with sensor of motion detect for Security system\r'
p1
a(lp2
F0.6417332747805943
aF0.3093644822177104
aF0.18732172773148575
aF0.132472696472957
aF0.1261190102394575
aF0.12252788753193108
aF0.11023236176414662
aF0.10431914267535775
aF0.10429697701453076
aF0.10399881584386014
aa.(lp0
S'A Security System by using Face and Speech Detection\r'
p1
a(lp2
F0.40578193952933794
aF0.3717400730988752
aF0.3155647980605852
aF0.1261483319405667
aF0.10063671667660741
aF0.09765350976685537
aF0.09748152190189845
aF0.09646564874194499
aF0.09577372682196612
aF0.08185508912043381
aa.(lp0
S'Implementation of GPS Based Security System for Safe Navigation of Fisherman Autoboat\r'
p1
a(lp2
F0.4670505900869134
aF0.30517190643872194
aF0.2511106159542982
aF0.21505061149456103
aF0.19863071072661836
aF0.18779809626998276
aF0.17715712037779477
aF0.17371323904973404
aF0.15031513244176525
aF0.13263954280873863
aa.(lp0
S'Development of The Multi-Level Fusion based Security System\r'
p1
a(lp2
F0.7885609545920297
aF0.7527252185902258
aF0.6395824588244915
aF0.5903269100833952
aF0.3822627998788002
aF0.33821117895398856
aF0.2974747724178062
aF0.2832763717596912
aF0.2801967202766988
aF0.27622625745070906
aa.(lp0
S'MONITORING AND SECURITY SYSTEM OF LOCOMOTIVES USING CAN AND PRINCIPLE COMPONENT ANALYSIS\r'
p1
a(lp2
F0.2926621583885121
aF0.2252648784652977
aF0.20672714356274044
aF0.16472360910168984
aF0.1576854149257084
aF0.13531994670005854
aF0.1320337593553804
aF0.13009753534475474
aF0.11973217344037597
aF0.11791396318124815
aa.(lp0
S'The system of crop intensification\r'
p1
a(lp2
F0.9187241728747133
aF0.4269531048788928
aF0.3705896586902601
aF0.35649879714310195
aF0.3438170217506596
aF0.3381806771317963
aF0.3029535232639009
aF0.28945556735972283
aF0.28183374395236127
aF0.2761808863243003
aa.(lp0
S'A Security Mechanism for library management system using low cost RFID tags \r'
p1
a(lp2
F0.48166530634463817
aF0.2710606004841508
aF0.20482016895029598
aF0.10942204734375609
aF0.10453357705421563
aF0.09762290318752677
aF0.09329991141061578
aF0.07563537771431768
aF0.07193436825090953
aF0.05597994684636947
aa.(lp0
S'ANDROID PHONE SECURITY USING WI-FI POSITIONING SYSTEM\r'
p1
a(lp2
F0.4132906567093009
aF0.40900008757590534
aF0.32737769191948946
aF0.2571078987301112
aF0.21961299683196997
aF0.19835063573171896
aF0.1852778252203884
aF0.18211809493382877
aF0.18211809493382877
aF0.17766050830146585
aa.(lp0
S'Analyses of Integrated Security Framework with Embedded RFID System for Wireless Network Architecture \r'
p1
a(lp2
F0.32430449421947893
aF0.2567899817638047
aF0.2561965614325999
aF0.21765453282681252
aF0.21251770070195763
aF0.18216501243359703
aF0.12261106606107493
aF0.1072299713921124
aF0.10617004752717492
aF0.08899416666990424
aa.(lp0
S'Formal Analysis of RFID Authentication Protocol for Security System\r'
p1
a(lp2
F0.5369719569481124
aF0.38681715688389307
aF0.3716478403932521
aF0.3442638734335706
aF0.3038184501520814
aF0.28775530707267266
aF0.25016325480257157
aF0.1908703568331731
aF0.18755479835986696
aF0.18498555454671814
aa.(lp0
S'LSec: Lightweight Security Protocol for Distributed Wireless Sensor Network \r'
p1
a(lp2
F0.9799909763191196
aF0.7077068672578126
aF0.4423233455854332
aF0.3749513302107166
aF0.3566532729478795
aF0.24445876489450358
aF0.2357691379360084
aF0.23205623812599252
aF0.2001643072371802
aF0.19672246619032566
aa.(lp0
S'Character Proximity For RFID Smart Certificate System \r'
p1
a(lp2
F0.3663259420981522
aF0.1959044615736299
aF0.16833748583094807
aF0.12872985949202806
aF0.10583064014055663
aF0.09469862518242908
aF0.09431032093156919
aF0.09257492478869779
aF0.09081734608225181
aF0.08381905700725009
aa.(lp0
S'Design and Development of a Radio Frequency Identification (RFID) Based Library Books Security System. \r'
p1
a(lp2
F0.3438745930085854
aF0.33098947882497076
aF0.3122183308158284
aF0.23425954126193282
aF0.2027310557802946
aF0.19834241453196866
aF0.1820442133537339
aF0.1820442133537339
aF0.17775119732339417
aF0.17317042907342933
aa.(lp0
S'THE CAMPUS SECURITY TRACKING SYSTEM BASED ON RFID AND ZIGBEE NETWORK\r'
p1
a(lp2
F0.5733240165665788
aF0.5442117189787354
aF0.33301355227830975
aF0.2059877642958617
aF0.17809777434085397
aF0.14548260850952827
aF0.14237790639158357
aF0.12416722389309603
aF0.1216851956539869
aF0.10217868003372609
aa.(lp0
S'Guide for Designing Cyber Security Exercises  \r'
p1
a(lp2
F0.9599013911128453
aF0.42483108666965136
aF0.2754408097699974
aF0.215970334961749
aF0.200567309728448
aF0.18654908177601376
aF0.16770396119663494
aF0.099955823875541
aF0.0944232945007177
aF0.09369915555062158
aa.(lp0
S'RFID SECURITY SYSTEM FOR DOMESTIC APPLICATIONS\r'
p1
a(lp2
F0.25636718910630746
aF0.1050866011255966
aF0.10052465128106496
aF0.08536388732541242
aF0.0792756164934577
aF0.06639413458643188
aF0.06394673348370626
aF0.06094978726504007
aF0.057165609985354
aF0.05684154087440555
aa.(lp0
S'MOBILE PHONE SECURITY SYSTEM \r'
p1
a(lp2
F1.323957915299883
aF0.3505852354190687
aF0.2206596525499805
aF0.19888473794083197
aF0.19307719598123294
aF0.1746888916020679
aF0.16081561117372084
aF0.159072166354551
aF0.15852470951911848
aF0.15630058722290285
aa.(lp0
S'Infrared Sensor and FBUS Technology for House Security System Based on Mobile Phone\r'
p1
a(lp2
F0.19595754081337027
aF0.17223814896957565
aF0.13108190705267936
aF0.12526410834150956
aF0.1250426005078871
aF0.09458928022709177
aF0.09010632551015754
aF0.08881490761625868
aF0.08204517985031998
aF0.08008272223068626
aa.(lp0
S'RFID Based Security System\r'
p1
a(lp2
F0.28432946107784174
aF0.10092355862741839
aF0.0752201674209196
aF0.04999320253085496
aF0.04999320253085496
aF0.04999320253085496
aF0.04389717669227066
aF0.04372174428785536
aF0.04209221563607115
aF0.04188389863634737
aa.(lp0
S'RFID based security system for Banks\r'
p1
a(lp2
F0.46288644971782017
aF0.402937304478255
aF0.20582145121848547
aF0.1282691380878719
aF0.10543058030977204
aF0.10291072560924273
aF0.09907603960706084
aF0.09623498382504914
aF0.09559943106437913
aF0.08781405855010858
aa.(lp0
S'A Research Study on Java File Security System Using Rijndael Algorithm\r'
p1
a(lp2
F0.17208386188620625
aF0.14941001972907278
aF0.13436989785739625
aF0.12081296775883027
aF0.1005359825898809
aF0.09609677374351984
aF0.08897723711412919
aF0.08884418518905163
aF0.08236866320873128
aF0.07823355532290704
aa.(lp0
S'RFID and Face Recognition Based Security and Access Control System\r'
p1
a(lp2
F0.37289366931159595
aF0.21504554495443298
aF0.21043538760264865
aF0.17208105657888545
aF0.15328926211551347
aF0.15328926211551347
aF0.13988399526162146
aF0.13611429687548668
aF0.13405970373976556
aF0.13029217567107115
aa.(lp0
S'Ethical Hacking: A Security Assessment Tool to Uncover Loopholes and Vulnerabilities in Network and to Ensure Protection to the System\r'
p1
a(lp2
F0.8234868365275015
aF0.42273142123208524
aF0.23908298028070976
aF0.23030651892222304
aF0.13716483651740694
aF0.12554773334740268
aF0.12554773334740268
aF0.12554773334740268
aF0.11602181121331928
aF0.10979824487033354
aa.(lp0
S'Automobile Security System Based on Face Recognition Structure Using GSM Network \r'
p1
a(lp2
F0.2423495211631491
aF0.23638782481561102
aF0.21815215649827618
aF0.16424263956528648
aF0.15825166105671315
aF0.15329610997176163
aF0.14506967536296816
aF0.13865518989808573
aF0.13708606608688742
aF0.12372309252444576
aa.(lp0
S'Household Security System Based on Ultrasonic Sensor Technology with SMS Notification\r'
p1
a(lp2
F0.21951058751044158
aF0.07769337271607173
aF0.07618838608576775
aF0.06662310528381006
aF0.06579906071043579
aF0.06335772201930133
aF0.05549109507565392
aF0.05199737945928555
aF0.05186181258130527
aF0.047518291514476
aa.