(lp0
S'Investigating Small Motions in Videos'
p1
a(lp2
F0.5293913087727642
aF0.396518913586218
aF0.23791134815173082
aF0.2141398708387824
aF0.2051620296974034
aF0.1351101483330817
aF0.11908365760813179
aF0.11022377727166552
aF0.10945417975176824
aF0.10292711930855249
aa.(lp0
S'Whale Detection'
p1
a(lp2
F0.3253794876584458
aF0.2891975108899527
aF0.22932024096091122
aF0.22914874884710984
aF0.21530099110198017
aF0.20336217978652862
aF0.17554055766036353
aF0.17368649360698923
aF0.14257426942572812
aF0.1425621532556105
aa.(lp0
S'Generating Anaglyphs from Light Field Images'
p1
a(lp2
F0.3747291461648406
aF0.23924239519297358
aF0.23055673397897902
aF0.19337955781697957
aF0.183242490839939
aF0.17407393890583125
aF0.16441848624966957
aF0.154987907819951
aF0.15249008086688962
aF0.1436185169655676
aa.(lp0
S'Baby Face Generator'
p1
a(lp2
F0.32042541112689593
aF0.21380349645822058
aF0.178773354421453
aF0.16515506650066056
aF0.13775904697391145
aF0.12011277563684404
aF0.11553984584908701
aF0.09986742945294864
aF0.09446056735460558
aF0.07998912404936794
aa.(lp0
S'Text detection and classification in natural images'
p1
a(lp2
F0.32554054359181966
aF0.3034598285523075
aF0.20885343693306585
aF0.18001854236153836
aF0.14411287387584942
aF0.13732038463410803
aF0.13234277191798233
aF0.12190454398331971
aF0.11874398476406275
aF0.11785183061997435
aa.(lp0
S'LaTeX Generation from Printed Equations\tKushagr Gupta'
p1
a(lp2
F0.3535176705884729
aF0.31491781121798396
aF0.2876259595942216
aF0.24955294630602864
aF0.1981621434814414
aF0.15745890560899198
aF0.156428153463524
aF0.13856383693591295
aF0.11932229592737471
aF0.11491104125887047
aa.(lp0
S'3D Image Reconstruction from Multiple 2D Images'
p1
a(lp2
F0.6355293811958476
aF0.387301748724893
aF0.2626325085738287
aF0.2474467956902302
aF0.24448594551559252
aF0.193299365861774
aF0.18057296265365705
aF0.16793142345619597
aF0.15571925979660645
aF0.1517261717850511
aa.(lp0
S'Robust Lens Ghosting Recovery\tGordon Wetzstein'
p1
a(lp2
F0.2658064608682478
aF0.22208518816591338
aF0.21523191075252157
aF0.12065818377780906
aF0.11690756699592851
aF0.11210882318270056
aF0.10960048247148971
aF0.0824327071545323
aF0.0784761762278904
aF0.07211097527716778
aa.(lp0
S'Video-based license plate reader'
p1
a(lp2
F1.213306920158337
aF1.0740543751233742
aF1.0021463743601242
aF0.787835746407877
aF0.579859453709501
aF0.37129771512513493
aF0.3581216963196166
aF0.3414128493853154
aF0.3317492342164456
aF0.31009031634437634
aa.(lp0
S'Create Pointillism Art with 3 Primary Colors from Natural Images'
p1
a(lp2
F0.5322233545697244
aF0.21475679219480107
aF0.18373340012017036
aF0.18291036271441635
aF0.15326906635549253
aF0.11541099823939979
aF0.10270977018012224
aF0.10147216081550935
aF0.09531307597216686
aF0.09337251834556567
aa.(lp0
S'Leighton Barnes\tSubsampling Images with Universal Sampling Sets\tKushagr Gupta'
p1
a(lp2
F0.28248167098731797
aF0.2707174117874014
aF0.24626723156010652
aF0.2053565459630056
aF0.16937418334288948
aF0.1489057679200644
aF0.1392022949817504
aF0.11929919841478703
aF0.11929919841478703
aF0.10725618914994485
aa.(lp0
S'Monocular-Vision-Based Vehicle Detection and Distance Estimation'
p1
a(lp2
F1.1997128970129733
aF0.8741939306881813
aF0.8370304195348203
aF0.7601361202821305
aF0.6611639679148934
aF0.6390775968435141
aF0.6101560963966053
aF0.5946105536792917
aF0.5095597983207426
aF0.46694975527792904
aa.(lp0
S'Sudoku Solver'
p1
a(lp2
F0.38499438210677084
aF0.2994630010531738
aF0.2765979055912723
aF0.24698865967229233
aF0.19304957758706076
aF0.16714050135436484
aF0.1607258100057393
aF0.14326361283797567
aF0.1251864898095486
aF0.12185727568328798
aa.(lp0
S'Preprocessing and Descriptor Features for Facial Micro-Expression Recognition'
p1
a(lp2
F0.3994697178117946
aF0.2692801843576385
aF0.22841382116214726
aF0.16404425024086025
aF0.11913658840000194
aF0.08466806134567278
aF0.07021010112417975
aF0.06923760873380035
aF0.0621820363205054
aF0.054142349971746974
aa.(lp0
S'Receipt to spreadsheet'
p1
a(lp2
F0.31535753218641976
aF0.22896928762250474
aF0.22705179465503492
aF0.2226023427168963
aF0.1500143608561238
aF0.13719381325507496
aF0.12141442264194469
aF0.11714128033995513
aF0.11660429765757897
aF0.1151590617543702
aa.(lp0
S'Depth-based stereoscopic image rendering'
p1
a(lp2
F0.214896154162481
aF0.1977199669859799
aF0.1894780638469497
aF0.18884813547611967
aF0.17582412613293902
aF0.13699682924656012
aF0.12698409109601153
aF0.11565957480948494
aF0.1074480770812405
aF0.10173092352020234
aa.(lp0
S'Scrabble Assistant'
p1
a(lp2
F0.2766555935263215
aF0.23379174124723348
aF0.21733477026587958
aF0.11910145308821328
aF0.10602311397581116
aF0.10586795830063403
aF0.08872942223123588
aF0.08490667795748945
aF0.08381213365466861
aF0.08381213365466861
aa.(lp0
S'Classification of photographic images based on perceived aesthetic quality'
p1
a(lp2
F0.2029135867428819
aF0.18085776209691645
aF0.15550655677925254
aF0.14564255243750882
aF0.11510415812735156
aF0.10299196726259224
aF0.09478368666231181
aF0.08100738210100053
aF0.07746560592753646
aF0.06565216555155406
aa.(lp0
S'Signboard Optical Character Recognition'
p1
a(lp2
F0.5695146533057593
aF0.4834942108793686
aF0.18920066074542863
aF0.17204238233310976
aF0.1714267412901275
aF0.12663410002938988
aF0.12458133041063485
aF0.11568266395273236
aF0.11568266395273236
aF0.11299680446382769
aa.(lp0
S'Sheet Music Reader'
p1
a(lp2
F0.306383925020185
aF0.1668222373222112
aF0.14115727773417872
aF0.11638534513655047
aF0.1154923181461462
aF0.1154923181461462
aF0.10693733161680205
aF0.0962578886012771
aF0.08671243160948634
aF0.06460957005915453
aa.(lp0
S'Image Processing Pipeline for Facial Expression Recognition under Variable Lighting'
p1
a(lp2
F0.8943307468393058
aF0.610455840884281
aF0.5771610993781364
aF0.49859942278074576
aF0.46625699907690793
aF0.3174532803666238
aF0.29445603049366487
aF0.28100861017433926
aF0.2662511383720071
aF0.24918375770713483
aa.(lp0
S'Visualization of Combustion Within a Hybrid Rocket Motor'
p1
a(lp2
F0.19324294392669672
aF0.18830212136486466
aF0.18539557757755334
aF0.1842446115743868
aF0.17299338130664516
aF0.14927955597153647
aF0.13481313042028303
aF0.1252022082341919
aF0.1251811878334674
aF0.11097377054511524
aa.(lp0
S'Star Pattern Detection'
p1
a(lp2
F0.5472399243992644
aF0.4294876734855133
aF0.25951875239731825
aF0.2506961740511708
aF0.2422216448884084
aF0.18849915530403683
aF0.1779196992985559
aF0.16909563501613178
aF0.16625329296213415
aF0.12122635945155617
aa.(lp0
S'Airport Signs and Markings Recognition for Enhanced Runway Incursion Avoidance'
p1
a(lp2
F0.7635325477439666
aF0.4827373946771917
aF0.4253967051716386
aF0.418124966621696
aF0.32698224298389555
aF0.2820554620560274
aF0.27964399516529104
aF0.21451628722330493
aF0.2131498046090529
aF0.21158383796242716
aa.(lp0
S'Chess State Detection'
p1
a(lp2
F0.11998368607405191
aF0.08798803645430472
aF0.08412369461156742
aF0.08318898689366112
aF0.06995479086056858
aF0.06986250858201613
aF0.06399129923949436
aF0.05596383268845486
aF0.05199293063208916
aF0.04818104040139044
aa.(lp0
S'Random Undersampling Methods for Spatio-Temporal Sparse Dynamic MRI'
p1
a(lp2
F0.36779264581521975
aF0.33386764820605747
aF0.3171742657957546
aF0.30760839468182016
aF0.23407664498572045
aF0.23099513083131296
aF0.22401915699654293
aF0.16299372435873757
aF0.15441378729530159
aF0.1464606887488034
aa.(lp0
S'Beer label recognition and classification'
p1
a(lp2
F0.5077807874806293
aF0.31873431260173585
aF0.2670046791422215
aF0.24666061638937087
aF0.23544117135175116
aF0.22298999823088975
aF0.20480712791380748
aF0.17353991944082944
aF0.1413910293783133
aF0.11589428637566665
aa.(lp0
S'Using Image Processing to Identify and Score Darts thrown into a Dartboard'
p1
a(lp2
F0.12182707334509141
aF0.11492838687831926
aF0.11022255600622079
aF0.0934655224150939
aF0.08640685243871352
aF0.07749548950747957
aF0.07623815374402412
aF0.07490178705443645
aF0.0733608293668884
aF0.07085304180825071
aa.(lp0
S'Grocery Checklist Completion and Price Computation'
p1
a(lp2
F0.43569494943091475
aF0.29804933493088365
aF0.2540928726487631
aF0.23460497277049253
aF0.18259581476568404
aF0.17984634410091552
aF0.1795269775427314
aF0.1556592894825289
aF0.13624652905633483
aF0.11776420181154264
aa.(lp0
S'Visualization of Forward Flapping Flight'
p1
a(lp2
F0.7050785466103564
aF0.26033669413305466
aF0.24472402760767936
aF0.23626356892335576
aF0.23136737129519025
aF0.20470704328795308
aF0.1914633288415722
aF0.17860797666528144
aF0.16886419886546294
aF0.14593323824889062
aa.(lp0
S'Perspective Correction of Singe Distorted Projector on Horizontally-Discontinuous Flat Surface with an Uncalibrated Camera'
p1
a(lp2
F0.5421856943932053
aF0.5067816125772665
aF0.485289664734659
aF0.24431824500434557
aF0.19312179065139926
aF0.17561872182569516
aF0.1458683958115155
aF0.141732312134079
aF0.13358627476611165
aF0.13198498421733243
aa.(lp0
S'Virtual Graffiti'
p1
a(lp2
F0.9242731434945589
aF0.6052976658646653
aF0.19940222467606067
aF0.15228204479195942
aF0.14370225810867748
aF0.13957775762074456
aF0.13676896858182083
aF0.13076221960347267
aF0.1066054487156643
aF0.10245466855794733
aa.(lp0
S'FriendBlend'
p1
a(lp2
F0.5638982628886712
aF0.43027683529162764
aF0.3901975569151728
aF0.32785297767597
aF0.29989845823571765
aF0.15124601262184698
aF0.15052418668104486
aF0.14862160761108106
aF0.14524739116350893
aF0.12398684540678487
aa.(lp0
S'Improved Stereoscopic 3D Reconstruction Using Keypoint Detection'
p1
a(lp2
F0.2801836215207726
aF0.2740368138728346
aF0.258120470074444
aF0.2370048119981272
aF0.23330161181065648
aF0.23266851085159299
aF0.2151511398419989
aF0.20768313684150663
aF0.18309028733040586
aF0.18067890150521415
aa.(lp0
S'Restaurant Menu Expert'
p1
a(lp2
F0.610151381666784
aF0.36839328704409596
aF0.3498566621605437
aF0.2503856069944649
aF0.24341208296545572
aF0.21585544162739997
aF0.21297736907236797
aF0.13852704202503618
aF0.1382340178681894
aF0.12334208251158595
aa.(lp0
S'Player Tracking and Analysis of Basketball Plays'
p1
a(lp2
F0.6961769277386853
aF0.5587068715982324
aF0.35947806077376915
aF0.3318346366073354
aF0.3283420610923489
aF0.28423993169383893
aF0.2764020531164174
aF0.24098509100291327
aF0.2151040875344684
aF0.19235229567719225
aa.(lp0
S'FussyFood: An Application to Navigate Food Allergies & Dietary Restrictions'
p1
a(lp2
F0.202241045201229
aF0.1616560632712268
aF0.12422524814261983
aF0.09814832412895913
aF0.09368095609385434
aF0.08823126775206848
aF0.08192903434120644
aF0.07593025157581952
aF0.0756268009303444
aF0.07284766796887739
aa.(lp0
S'Superresolution, denoise, and demosaicing image processing'
p1
a(lp2
F0.6429667087251637
aF0.4126546651887472
aF0.4060200033825037
aF0.328124070572365
aF0.27465326823769215
aF0.16397418247052303
aF0.16177575650433965
aF0.12183137734143966
aF0.11368560094710103
aF0.10311088166505816
aa.(lp0
S'Feature Extraction for Analysis of Electron Microscopy Images'
p1
a(lp2
F0.17750018419948954
aF0.1654118864435315
aF0.15289912873439523
aF0.12817016445075838
aF0.11727500754924841
aF0.11499923600148697
aF0.11130566912829018
aF0.1074629906045314
aF0.10197363085254901
aF0.09748152190189845
aa.(lp0
S'Automatic MRI Bone Segmentation\tGordon Wetzstein'
p1
a(lp2
F0.19001972055199642
aF0.12556432263563572
aF0.11129517778892263
aF0.09765165498704917
aF0.09474473206649069
aF0.08586319170892107
aF0.0789698276931868
aF0.07265459903458688
aF0.07265459903458688
aF0.06924686618762114
aa.(lp0
S'Stereo Panorama Generation'
p1
a(lp2
F0.32290169356302206
aF0.12848277440370784
aF0.1107541717606633
aF0.10845167761218018
aF0.10845167761218018
aF0.07690039393145576
aF0.0748394986660336
aF0.07094191910263235
aF0.0663048877998227
aF0.057398802757389594
aa.(lp0
S'Face and Photograph Augmentation Based on a Custom Theme'
p1
a(lp2
F0.9573977988851368
aF0.3887074788514739
aF0.253849782107085
aF0.2393494497212842
aF0.22903751806053352
aF0.2102193508074298
aF0.19038733658031376
aF0.1751997606786363
aF0.16363841062217105
aF0.13241005809329132
aa.(lp0
S'360 Rendering of Stereoscopic 3D Views from Spherical Image Pairs'
p1
a(lp2
F0.40708155133551205
aF0.400353982378771
aF0.25365392183466695
aF0.249823201895546
aF0.20312019549752267
aF0.1679305391492683
aF0.1456250390951149
aF0.13557478652435243
aF0.12653646742272895
aF0.11126557892770848
aa.(lp0
S'Mobile Haze Removal Application'
p1
a(lp2
F0.7801629811989922
aF0.330502972808413
aF0.1829347680052809
aF0.17755433365218443
aF0.14938638214436395
aF0.13821038366626365
aF0.136521217054374
aF0.13182881725286222
aF0.11510258478788621
aF0.1129315009408282
aa.(lp0
S'Star Mapping Algorithm'
p1
a(lp2
F1.0218115518959454
aF0.7549535303535849
aF0.6079931322526689
aF0.5320629708332804
aF0.34077771111332783
aF0.29094341401572144
aF0.2520560138174305
aF0.2503623756669348
aF0.20197907080371635
aF0.1932321536024057
aa.(lp0
S'Real-Time 3D Reconstruction of Dexterous Continuum Surgical Robots'
p1
a(lp2
F0.5163705781355739
aF0.3050987268831866
aF0.30334475937457817
aF0.2928973685804849
aF0.2806028989516644
aF0.2430314630669008
aF0.24283005494245333
aF0.19765736668004358
aF0.18661344485494166
aF0.17333986249975894
aa.(lp0
S'Decomposing Documents into LaTeX from its Geometrical and Logical Layout Tracking and Analysis of Basketball Plays'
p1
a(lp2
F0.5614798408980933
aF0.4151968720563534
aF0.35803633117613837
aF0.2155045732810588
aF0.17689858319667953
aF0.17479783775528795
aF0.17108760016206195
aF0.14616672569353106
aF0.14277544287673735
aF0.12738994938092663
aa.(lp0
S'Handling Disocclusions in Cinematic Virtual Reality'
p1
a(lp2
F0.5585447455171382
aF0.3475389527662193
aF0.13923921866742195
aF0.11083882492881046
aF0.1053773565951803
aF0.10343421213280336
aF0.0978985800752358
aF0.08788469653184759
aF0.0866675803517573
aF0.08319020396896687
aa.(lp0
S'Mobile face recognition and audio representation for visually impaired users'
p1
a(lp2
F0.609798824382931
aF0.2212722718142615
aF0.1958410690675146
aF0.15094509184592536
aF0.14884207567553256
aF0.1270528982105536
aF0.12401626700851687
aF0.12136629632353017
aF0.12112939728457622
aF0.11405841701907349
aa.(lp0
S'Obstacle avoidance with stereo vision in Self-driving cars'
p1
a(lp2
F0.2629899605215343
aF0.2514870696624175
aF0.22895596563051224
aF0.22033953059352923
aF0.20238212108876222
aF0.18586113161212858
aF0.18586113161212858
aF0.1589334319035293
aF0.1408728146417646
aF0.11853833130567153
aa.(lp0
S'Analyzing aerodynamic performance during flapping flight'
p1
a(lp2
F1.1613281291740456
aF0.686210977402195
aF0.310070199966651
aF0.28310757388259433
aF0.2808222704258189
aF0.2270098923101436
aF0.20586132315429628
aF0.1906173604494318
aF0.16343409843916973
aF0.1397371399071264
aa.(lp0
S'Stereo Depth Maps'
p1
a(lp2
F0.24558064401121732
aF0.20825943890193108
aF0.18944792538008193
aF0.1398308466462121
aF0.11563597094551949
aF0.11242996881645471
aF0.11226543726227077
aF0.10150502914533167
aF0.0948258755027716
aF0.08052966452235552
aa.(lp0
S'Pinna Feature Extraction from Handheld Device Capture'
p1
a(lp2
F0.16613785908805295
aF0.15045502245961082
aF0.14654496009044507
aF0.13709163980052774
aF0.1099087200678338
aF0.07848690761045307
aF0.0751110008929227
aF0.059935456720709615
aF0.059935456720709615
aF0.05946304959793888
aa.(lp0
S'Augmented reality musical instruments'
p1
a(lp2
F0.8730074416356975
aF0.5362530383178474
aF0.45193263000137474
aF0.3091662924995753
aF0.30221716459179404
aF0.29643920861012696
aF0.2772282587213417
aF0.25705508159002344
aF0.23940436237690402
aF0.22142743218641076
aa.(lp0
S'Visual Chess Recognition'
p1
a(lp2
F0.6551490160233945
aF0.5036467909880259
aF0.42660866159662897
aF0.39921433475437795
aF0.29314388551095405
aF0.2754913356565853
aF0.25536763848703814
aF0.2285403544267655
aF0.1572459633243261
aF0.1274664263956026
aa.(lp0
S'Video Detection and Enhancement of Small Unmanned Aircraft'
p1
a(lp2
F0.19589173236579902
aF0.1779239552081389
aF0.12204947107534099
aF0.12127418157678438
aF0.12031279833460637
aF0.11531269409609216
aF0.11296560817486233
aF0.1113021206623858
aF0.10902045328919778
aF0.10700663080304504
aa.(lp0
S'Competitive Analysis of Printed Circuit Boards'
p1
a(lp2
F0.20860420380654413
aF0.17160970841434198
aF0.17031129177443194
aF0.13168209607594933
aF0.11464571624087672
aF0.11446484531766452
aF0.08580485420717099
aF0.07570682354733252
aF0.07447160571026039
aF0.0742355224689994
aa.(lp0
S'Sheet music capturer'
p1
a(lp2
F0.5615681142186332
aF0.5527524296377011
aF0.41289505316842334
aF0.2539031715064257
aF0.21183326644798126
aF0.19499759140554404
aF0.19298180873380733
aF0.16962119252400062
aF0.16166266506576188
aF0.1508424868897071
aa.(lp0
S'PCA and LDA for Iris Recognition\t'
p1
a(lp2
F0.3711256344064681
aF0.19375105638360982
aF0.1859557731736633
aF0.14555292079999183
aF0.1440857062636518
aF0.13652762507491714
aF0.13282555226690235
aF0.13282555226690235
aF0.12810091624390624
aF0.12618427465355725
aa.(lp0
S'Digital Composition of Mosaics using Edge Priority Assignment'
p1
a(lp2
F0.2611917385692503
aF0.2272035942480005
aF0.14380118737020073
aF0.14295929933467152
aF0.13644068234658413
aF0.11779235268809328
aF0.10812451547612191
aF0.09103768829523555
aF0.08370658735452649
aF0.06779046514295627
aa.(lp0
S'Automated Estimation of Human Age'
p1
a(lp2
F0.19921185099665573
aF0.19734158893758538
aF0.18817142215745344
aF0.16971376648632341
aF0.14603277581381316
aF0.10261762624754439
aF0.09657999445051008
aF0.093196349666218
aF0.0882753693909012
aF0.08517751265591844
aa.(lp0
S'Mobile Slide-to-video Search in ClassX Database'
p1
a(lp2
F0.8362411781033484
aF0.42214097933101724
aF0.4181205890516742
aF0.3000355463418499
aF0.18863991829697704
aF0.1804952834577692
aF0.1676433110427559
aF0.1379097603929293
aF0.11492690236978152
aF0.08734444580103395
aa.(lp0
S'Lip Flip Application'
p1
a(lp2
F0.5702264459237821
aF0.1778687996459504
aF0.16650797251092916
aF0.16336113565705346
aF0.1571835019499582
aF0.1230036681548855
aF0.11819640113224536
aF0.10810149807315964
aF0.0970801179289523
aF0.08471143103809456
aa.(lp0
S'Structured Light 3D Surface Reconstruction of Birds'
p1
a(lp2
F0.27218467021298753
aF0.17131785516873935
aF0.16492963604573696
aF0.16086663497391104
aF0.1584690160310839
aF0.1524601163219484
aF0.1415145241874624
aF0.12244149271551755
aF0.1202274769319326
aF0.1175350394194794
aa.(lp0
S'3d Visualization Construction from Topographical Maps'
p1
a(lp2
F0.8856494828906138
aF0.5296087927304922
aF0.29745151372534495
aF0.2761888622836666
aF0.2455017188691652
aF0.20945539484750442
aF0.20708359180878058
aF0.170490501769405
aF0.14254938514983784
aF0.1227508594345826
aa.(lp0
S'Efficient Brain MRI Segmentation via Neuromechanics-based Edge Optimization'
p1
a(lp2
F0.21923050221215434
aF0.18288731215201648
aF0.15695760151906052
aF0.15104248026209385
aF0.1408147546656314
aF0.13351497721532293
aF0.11618652327853374
aF0.1129315009408282
aF0.10867810131025771
aF0.10288769843591242
aa.(lp0
S''
p1
a(lp2
F0.4236866844624055
aF0.3160481950980575
aF0.269513893245321
aF0.2604922535413614
aF0.19165696126183168
aF0.15853359308717554
aF0.1371952770299635
aF0.11942832334394922
aF0.11598364567900381
aF0.10919160991446786
aa.(lp0
S'Digital Make up Face Generation'
p1
a(lp2
F0.6171479317480802
aF0.2800016136672921
aF0.2693530185667977
aF0.18945623373646533
aF0.14423668218673932
aF0.14068796578795928
aF0.1282124273374665
aF0.12369452172582669
aF0.1191445306732931
aF0.1165206845463236
aa.(lp0
S'Perceptually Accurate Depth of Field Rendering'
p1
a(lp2
F0.6738637369819889
aF0.48773740918169467
aF0.41586031730228706
aF0.3563734628745946
aF0.22226823492277198
aF0.20735336575082394
aF0.20413253552695962
aF0.19935499868586726
aF0.1605270585553353
aF0.15973390001779217
aa.