(lp0
S'Machine Learning Classifier for Preoperative Diagnosis of Benign Thyroid Nodules'
p1
a(lp2
F0.4086637809061713
aF0.3563548169501814
aF0.31385378373593953
aF0.25500619928545093
aF0.2125051660712091
aF0.17981206359871538
aF0.17327344310421663
aF0.1536575816207204
aF0.15038827137347102
aF0.15038827137347102
aa.(lp0
S'Predicting Student Earnings After College'
p1
a(lp2
F0.3599510582221557
aF0.29048681891612566
aF0.2778569572241202
aF0.2652270955321147
aF0.25259723384010924
aF0.24628230299410653
aF0.23996737214810382
aF0.18944792538008193
aF0.18313299453407922
aF0.17681806368807645
aa.(lp0
S'Experimenting with Algorithmic Composition Techniques'
p1
a(lp2
F0.4894518638714865
aF0.40107861067246814
aF0.3942806681186975
aF0.3195033000272203
aF0.30590741491967904
aF0.2855135872583671
aF0.2651197595970552
aF0.2515238744895139
aF0.23113004682820193
aF0.23113004682820193
aa.(lp0
S'SocialSense: Quantifying Social Media Linkage and Malicious Intent Across the Web'
p1
a(lp2
F0.2446841755318503
aF0.21815215649827618
aF0.21815215649827618
aF0.2063601480389099
aF0.1857241332350189
aF0.17098412266081106
aF0.16214011631628636
aF0.16214011631628636
aF0.16214011631628636
aF0.13560809728271223
aa.(lp0
S'Rossmann store sales quantity prediction'
p1
a(lp2
F0.6938815580186134
aF0.6938815580186134
aF0.5782346316821778
aF0.5204111685139601
aF0.4625877053457423
aF0.43367597376163336
aF0.3469407790093067
aF0.3469407790093067
aF0.31802904742519783
aF0.31802904742519783
aa.(lp0
S'Classication of Behavioral Decision using Pre-decision Neural Activity'
p1
a(lp2
F0.4118004826254511
aF0.3182094638469395
aF0.17595111530360183
aF0.1684638338013209
aF0.16472019305018046
aF0.16097655229903998
aF0.15723291154789953
aF0.15723291154789953
aF0.1497456300456186
aF0.14600198929447814
aa.(lp0
S'An Application of Machine Learning to Native Advertisements'
p1
a(lp2
F0.665420789318832
aF0.5947198304537061
aF0.5073833518556093
aF0.3867758337915711
aF0.3410281545259014
aF0.2578505558610474
aF0.2287383963283485
aF0.22457951639510582
aF0.21210287659537772
aF0.19962623679564961
aa.(lp0
S'Identifying Cardiomyocytes from Acoustic Measurements'
p1
a(lp2
F0.5999184303702595
aF0.4943327866250938
aF0.4367406173095489
aF0.35035236333623154
aF0.3023588889066108
aF0.28316149913476246
aF0.27356280424883833
aF0.24476671959106586
aF0.23996737214810382
aF0.23516802470514173
aa.(lp0
S'College Football Bowl Predictor'
p1
a(lp2
F0.536097320756402
aF0.30634132614651544
aF0.30634132614651544
aF0.30634132614651544
aF0.2808128823009725
aF0.2808128823009725
aF0.2808128823009725
aF0.2552844384554296
aF0.2552844384554296
aF0.2297559946098866
aa.(lp0
S'A pairs trading strategy for GS/MS using machine learning'
p1
a(lp2
F0.41016787252151926
aF0.3718344264914707
aF0.314334257446398
aF0.2721674668133446
aF0.2721674668133446
aF0.26450077760733487
aF0.26066743300433
aF0.22616733157728633
aF0.22233398697428147
aF0.19933391935625236
aa.(lp0
S'Anomaly Detection in Lengthy Legal Documents'
p1
a(lp2
F0.9527062834536658
aF0.7234837190136861
aF0.44411871860246077
aF0.4154658980474633
aF0.3724866672149671
aF0.35099705179871904
aF0.3366706415212203
aF0.3151810261049721
aF0.30801782096622277
aF0.29369141068872406
aa.(lp0
S'Activity Recognition Using Cell Phones'
p1
a(lp2
F0.6839070106220958
aF0.4559380070813972
aF0.4399401822715236
aF0.4399401822715236
aF0.4079445326517765
aF0.3719494268295609
aF0.33595432100734535
aF0.27996193417278775
aF0.2679635655653826
aF0.2599646531604458
aa.(lp0
S'Top 100 Song Classifier'
p1
a(lp2
F0.31138220363364666
aF0.28430549027419916
aF0.2470750094049588
aF0.22676747438537315
aF0.2166137068755803
aF0.20984452853571842
aF0.20984452853571842
aF0.2064599393657875
aF0.19630617185599464
aF0.1827678151762709
aa.(lp0
S'Predicting Valuations of Venture Capital-backed Private Companies'
p1
a(lp2
F0.772940726999957
aF0.49157736612549563
aF0.48834330450624897
aF0.4592367499330288
aF0.355746778117135
aF0.24578868306274781
aF0.23932055982425446
aF0.22638431334726775
aF0.2166821284895277
aF0.213448066870281
aa.(lp0
S'Short Term Price Prediction in Financial Markets'
p1
a(lp2
F0.4319412698665868
aF0.4212760533266711
aF0.3946130119768818
aF0.3892804037069239
aF0.3839477954369661
aF0.2506325886880195
aF0.21863693906827236
aF0.18664128944852518
aF0.18130868117856733
aF0.16531085636869372
aa.(lp0
S'Similar language detection'
p1
a(lp2
F0.6527488205202823
aF0.455515363960197
aF0.38507484376016654
aF0.3662907050401584
aF0.3334184622801442
aF0.3193303582401381
aF0.3193303582401381
aF0.3146343235601361
aF0.309938288880134
aF0.2911541501601259
aa.(lp0
S'Modeling MOOC Dropouts'
p1
a(lp2
F0.6267804496405696
aF0.6088724367936962
aF0.5193323725593291
aF0.4521773243835538
aF0.40293028905465195
aF0.33129823766715827
aF0.28205120233825637
aF0.2730971959148196
aF0.2686201927031013
aF0.2462351766445095
aa.(lp0
S'A Clustering Algorithm for Reduced Order Modeling of Shock Waves'
p1
a(lp2
F0.6594314331549945
aF0.47610402227787985
aF0.3912808918720507
aF0.38580843184586816
aF0.36939105176732057
aF0.36391859174113805
aF0.32561137155786035
aF0.2763592313222176
aF0.2544693912174875
aF0.24078824115203118
aa.(lp0
S'Prediction of Post-Collegiate Earnings'
p1
a(lp2
F0.8439797340641971
aF0.5290619228462131
aF0.4030947983590195
aF0.3023210987692646
aF0.2519342489743872
aF0.2456358927500275
aF0.2141441116282291
aF0.18895068673079038
aF0.18895068673079038
aF0.18895068673079038
aa.(lp0
S'Predicting political ideology using campaign finance data'
p1
a(lp2
F0.5550265750364306
aF0.5468644195211889
aF0.4734050198840143
aF0.457080708853531
aF0.4529996310959102
aF0.4325942423078062
aF0.4121888535197021
aF0.3672969981858732
aF0.32648622060966503
aF0.2571078987301112
aa.(lp0
S'Fast Tree-Structured Recursive Neural Networks'
p1
a(lp2
F0.5503838810736326
aF0.3679709376320857
aF0.30821497340123427
aF0.2264436539274374
aF0.20442829868449208
aF0.1792678926925546
aF0.1729777911945702
aF0.1729777911945702
aF0.16983274044557806
aF0.15410748670061714
aa.(lp0
S'Data fusion for predicting cancer survival'
p1
a(lp2
F0.44246475595414486
aF0.44246475595414486
aF0.37071371444806733
aF0.36672754547550745
aF0.35875520753038775
aF0.31889351780478914
aF0.31889351780478914
aF0.2750456591066306
aF0.27105949013407077
aF0.26707332116151083
aa.(lp0
S'Analysis on Yelp User Preference'
p1
a(lp2
F0.39749196613489585
aF0.33492378628032893
aF0.33124330511241323
aF0.2870775310974248
aF0.26499464408993056
aF0.2539532005861835
aF0.23555079474660495
aF0.23555079474660495
aF0.23555079474660495
aF0.23187031357868926
aa.(lp0
S'Tracing SPN dendritic branches and classifying their neuronal inputs'
p1
a(lp2
F0.45895399044719304
aF0.3059693269647954
aF0.2797433846535272
aF0.26225942311268174
aF0.20543654810493403
aF0.18358159617887723
aF0.17483961540845452
aF0.1529846634823977
aF0.1529846634823977
aF0.13550070194155225
aa.(lp0
S'Can Machines Recognize Expertise?'
p1
a(lp2
F0.35824512903626865
aF0.2558893778830491
aF0.2558893778830491
aF0.23883008602417913
aF0.2160843635456859
aF0.2160843635456859
aF0.2160843635456859
aF0.21039793292606257
aF0.19902507168681594
aF0.1762793492083227
aa.(lp0
S'Predicting Roles in "The Resistance" Board Game'
p1
a(lp2
F0.42796728790744626
aF0.3179185567312458
aF0.2659511003424845
aF0.25372346354512887
aF0.1925852795583508
aF0.1620161875649618
aF0.1589592783656229
aF0.1589592783656229
aF0.1497885507676062
aF0.1436747323689284
aa.(lp0
S'Neighborhood and Review Score Prediction for Airbnb Listings'
p1
a(lp2
F0.7492924675418584
aF0.48122662786093495
aF0.47476721003729827
aF0.33911943574092734
aF0.32620060009365387
aF0.2648361307691051
aF0.2163904970918298
aF0.21316078818001147
aF0.20024195253273802
aF0.19701224362091968
aa.(lp0
S'Finding Influencers within Fuzzy Topics on Twitter'
p1
a(lp2
F0.5187413490330297
aF0.40390547787304604
aF0.392025904994427
aF0.392025904994427
aF0.3722266168633953
aF0.368266759237189
aF0.368266759237189
aF0.34054775585374464
aF0.3009491795916813
aF0.26927031858203065
aa.(lp0
S'How can machine learning help stock investment?'
p1
a(lp2
F0.47993474429620764
aF0.40049726937821456
aF0.350848847554469
aF0.3376092684014702
aF0.33098947882497076
aF0.32767958403672104
aF0.2614816882717269
aF0.24493221433047838
aF0.24493221433047838
aF0.20521347687148186
aa.(lp0
S'Applying adversarial examples to text classification of natural language'
p1
a(lp2
F0.6291279419613207
aF0.6111528579052831
aF0.5886840028352359
aF0.5122898955970755
aF0.413426933288868
aF0.3235515130086793
aF0.310070199966651
aF0.27861380286858495
aF0.24266363475650946
aF0.23816986374250004
aa.(lp0
S'Learning Instrument Identification'
p1
a(lp2
F0.3943837974621175
aF0.38528263290529935
aF0.32157448100757274
aF0.30033843037499713
aF0.2609000506287854
aF0.24876516455302794
aF0.23359655695833112
aF0.2093267848068162
aF0.20629306328787683
aF0.20629306328787683
aa.(lp0
S'Detecting gene-by-environment interaction in coronary artery disease '
p1
a(lp2
F0.49760676007455634
aF0.49760676007455634
aF0.4138972116507992
aF0.31158554135509603
aF0.2697307671432175
aF0.25112864527127143
aF0.2464781148032849
aF0.2325265233993254
aF0.19997281012341983
aF0.1906717491874468
aa.(lp0
S'Biomarker identification for early-stage diabetes diagnosis in mice liver cells'
p1
a(lp2
F0.45959214131975923
aF0.365413423836202
aF0.32774193684277914
aF0.27876900375132935
aF0.21472747586251048
aF0.19965888106514132
aF0.19589173236579902
aF0.1732888401697453
aF0.16198739407171842
aF0.15068594797369153
aa.(lp0
S'Learning with Difference of Gaussian Features in the 3D Segmentation of Glioblastoma Brain Tumors'
p1
a(lp2
F0.6416046052902473
aF0.6053557575337362
aF0.5147336381424583
aF0.43136128830248266
aF0.40236221009727374
aF0.3697382471164137
aF0.33711428413555367
aF0.3298645145842514
aF0.32623962980860033
aF0.29361566682774026
aa.(lp0
S'Incorporating Nesterov Momentum into Adam'
p1
a(lp2
F1.5582296892734013
aF0.5609626881384244
aF0.49863350056748845
aF0.43630431299655237
aF0.43630431299655237
aF0.3116459378546802
aF0.2804813440692122
aF0.24931675028374423
aF0.24931675028374423
aF0.24931675028374423
aa.(lp0
S'Rossmann Store Sales Prediction'
p1
a(lp2
F0.941410459965638
aF0.9044924027120835
aF0.8121972595781976
aF0.6460660019372025
aF0.6460660019372025
aF0.6460660019372025
aF0.5537708588033164
aF0.5353118301765393
aF0.4983937729229848
aF0.4983937729229848
aa.(lp0
S'Multifaceted Predictive Algorithms in Commodity Markets'
p1
a(lp2
F0.46660322362131296
aF0.39388583812188754
aF0.31510867049751007
aF0.2848097598727495
aF0.260570631372941
aF0.2302717207481804
aF0.19391302799846774
aF0.18179346374856348
aF0.17573368162361136
aF0.16967389949865924
aa.(lp0
S"Don't Feed the Trolls: Insult Detection on Online Communities"
p1
a(lp2
F0.760292664231616
aF0.44746391176131567
aF0.3167886100965066
aF0.3009491795916813
aF0.24551117282479268
aF0.225711884693761
aF0.2098724541889357
aF0.20591259656272934
aF0.190073166057904
aF0.18215345080549133
aa.(lp0
S'What makes a good muffin?'
p1
a(lp2
F0.21475679219480107
aF0.21008816627752278
aF0.2007509144429662
aF0.18207641077385306
aF0.1774077848565748
aF0.1774077848565748
aF0.14939602935290508
aF0.14472740343562682
aF0.14472740343562682
aF0.14472740343562682
aa.(lp0
S'Finding the Optimal Fantasy Football Team'
p1
a(lp2
F0.5422991460974097
aF0.4564351146319865
aF0.40672435957305725
aF0.34345612586169283
aF0.33893696631088105
aF0.2847070517011401
aF0.28018789215032835
aF0.24855377529464612
aF0.2440346157438344
aF0.20336217978652862
aa.(lp0
S'Your Next Personal Trainer'
p1
a(lp2
F0.30677647007570086
aF0.2658729407322741
aF0.25905568584170297
aF0.23178666627941844
aF0.21815215649827618
aF0.10907607824913809
aF0.10225882335856695
aF0.0886243135774247
aF0.0886243135774247
aF0.08180705868685356
aa.(lp0
S'RoboCop: Crime Classification and Prediction in San Francisco'
p1
a(lp2
F1.4060868442758847
aF1.0689129581485042
aF0.9326086212033929
aF0.42684779201232215
aF0.41967387954152685
aF0.4089130108353338
aF0.40532605459993615
aF0.3658695360105618
aF0.35510866730436885
aF0.3479347548335735
aa.(lp0
S"Predicting A Student's Performance"
p1
a(lp2
F0.5323779448318859
aF0.42908073165554983
aF0.3814050948049332
aF0.3774321250673818
aF0.3655132158547276
aF0.3575672763796249
aF0.3337294579543165
aF0.3297564882167652
aF0.3257835184792138
aF0.3257835184792138
aa.(lp0
S'Learning with Difference of Gaussian Features in the 3D Segmentation of Glioblastoma Brain Tumors'
p1
a(lp2
F0.9070766667198323
aF0.4655367019673214
aF0.30715823634957284
aF0.28316149913476246
aF0.2639641093629142
aF0.2591647619199521
aF0.22556932981921757
aF0.21117128749033132
aF0.21117128749033132
aF0.21117128749033132
aa.(lp0
S'Human Activity Recognition Using Wearable Devices Sensor Data'
p1
a(lp2
F0.4553836270137283
aF0.439544196508903
aF0.43162448125649033
aF0.308868894844094
aF0.2534308880772053
aF0.23759145757238
aF0.22967174231996734
aF0.2098724541889357
aF0.20195273893652302
aF0.19799288131031667
aa.(lp0
S'Predicting Answer Quality on Community Q&A Websites'
p1
a(lp2
F0.8237685909561772
aF0.4208383019015253
aF0.4208383019015253
aF0.37606826978434177
aF0.37606826978434177
aF0.3671142633609051
aF0.3671142633609051
aF0.35816025693746834
aF0.33129823766715827
aF0.3133902248202848
aa.(lp0
S'Predicting Momentum Streaks in the NBA'
p1
a(lp2
F0.486554533872707
aF0.3243696892484713
aF0.3111301100954725
aF0.27803116221297547
aF0.20190358208323217
aF0.1820442133537339
aF0.1688046342007351
aF0.16549473941248538
aF0.16218484462423566
aF0.15887494983598596
aa.(lp0
S'Predicting Financial Market Stability Using News and Google Trends Data'
p1
a(lp2
F0.37472382437541735
aF0.3350895737203251
aF0.3098677778489028
aF0.30266155045706783
aF0.28824909567339796
aF0.25942418610605816
aF0.2522179587142232
aF0.24501173132238827
aF0.23059927653871837
aF0.21618682175504844
aa.(lp0
S'Examining Long-Term Trends in Company Fundamentals Data'
p1
a(lp2
F0.4135607902977959
aF0.4084551015286873
aF0.30634132614651544
aF0.250178749686321
aF0.18380479568790928
aF0.14295928553504056
aF0.14295928553504056
aF0.14295928553504056
aF0.09190239784395464
aF0.08679670907484605
aa.(lp0
S'Sign Language Recognition using Temporal Classification'
p1
a(lp2
F0.9848660898578426
aF0.9348728873269877
aF0.8498844430245344
aF0.7049041556850549
aF0.6099170708764304
aF0.5999184303702595
aF0.5799211493579175
aF0.534927267080148
aF0.5249286265739771
aF0.5049313455616351
aa.(lp0
S'ML in Network Intrusion Detection'
p1
a(lp2
F0.4442681466105703
aF0.3191221898188603
aF0.31286489197927486
aF0.30660759413968935
aF0.2596778603427981
aF0.19710488194694314
aF0.18459028626777216
aF0.17833298842818665
aF0.1752043395083939
aF0.1689470416688084
aa.(lp0
S'Draft Kings and Queens'
p1
a(lp2
F0.8490465681217826
aF0.5764579330932103
aF0.5004906085770507
aF0.46474127939297566
aF0.45580394709695693
aF0.4200546179128819
aF0.3619619579887599
aF0.245776638140516
aF0.245776638140516
aF0.23683930584449725
aa.(lp0
S'Clustering a Customer Base Using Twitter Data'
p1
a(lp2
F0.3007677305899414
aF0.22638431334726775
aF0.20697994363178765
aF0.1972777587740476
aF0.1972777587740476
aF0.17463932743932084
aF0.1584690193430874
aF0.14876683448534736
aF0.14876683448534736
aF0.1455327728661007
aa.(lp0
S'Predicting Yelp Star Ratings Based on Text Analysis of User Reviews'
p1
a(lp2
F0.5148286887563609
aF0.38612151656727073
aF0.2831557788159985
aF0.2717151412880794
aF0.2688549819060996
aF0.2659948225241198
aF0.2516940256142209
aF0.24311354746828157
aF0.22023227241244328
aF0.19735099735660505
aa.(lp0
S'Assessing and Implementing Automated News Classification Algorithms'
p1
a(lp2
F0.4506849899796477
aF0.2029574789312321
aF0.18504946608435863
aF0.17609545966092194
aF0.1731107908531097
aF0.164156784429673
aF0.15520277800623627
aF0.14624877158279959
aF0.13729476515936287
aF0.13729476515936287
aa.(lp0
S'Predicting a Happier Place'
p1
a(lp2
F0.6594523204070029
aF0.44421441027416164
aF0.25187415015545245
aF0.2335560301441468
aF0.22897650014132043
aF0.21065838013001476
aF0.20149932012436197
aF0.18776073011588276
aF0.18776073011588276
aF0.18318120011305633
aa.(lp0
S'Crime classification and prediction in San Francisco city'
p1
a(lp2
F0.4206324626734004
aF0.35857193539371834
aF0.3516763212515314
aF0.2758245656874756
aF0.18618158183904607
aF0.18618158183904607
aF0.17239035355467225
aF0.16549473941248538
aF0.15859912527029849
aF0.14480789698592472
aa.(lp0
S'MasterChef'
p1
a(lp2
F0.4829851769930055
aF0.3863881415944044
aF0.3813040870997412
aF0.3507997601317619
aF0.3507997601317619
aF0.259286779227824
aF0.259286779227824
aF0.23386650675450796
aF0.2287824522598447
aF0.2287824522598447
aa.(lp0
S"Predict Employees' Computer Access Needs in Company"
p1
a(lp2
F0.5182509265429877
aF0.30456452555132923
aF0.28491520132221126
aF0.20386173887709944
aF0.19894940781981993
aF0.19403707676254042
aF0.19403707676254042
aF0.18912474570526092
aF0.1793000835907019
aF0.17684391806206215
aa.(lp0
S'Analyzing Donations to 2016 Presidential Candidates'
p1
a(lp2
F0.3296085856206304
aF0.3018844989796428
aF0.25259723384010924
aF0.24643632569766757
aF0.24335587162644673
aF0.2002295146293549
aF0.1632640657747048
aF0.1632640657747048
aF0.1632640657747048
aF0.1601836117034839
aa.(lp0
S'Learning of visualization of object recognition features and image reconstruction'
p1
a(lp2
F0.4491800726549666
aF0.27517337784268225
aF0.24280003927295493
aF0.23875337195173904
aF0.1578200255274207
aF0.14568002356377296
aF0.14163335624255705
aF0.13758668892134113
aF0.13758668892134113
aF0.13758668892134113
aa.(lp0
S'Playing Tetris with Genetic Algorithms'
p1
a(lp2
F0.4398323802175487
aF0.2166821284895277
aF0.213448066870281
aF0.1940436971548009
aF0.19080963553555422
aF0.19080963553555422
aF0.1843415122970609
aF0.142298711246854
aF0.1293624647698673
aF0.1293624647698673
aa.(lp0
S'Using CNNs to Estimate Depth from Stereo Imagery '
p1
a(lp2
F0.35842121158733176
aF0.3453082404316976
aF0.3103403173500067
aF0.27537239426831583
aF0.26225942311268174
aF0.2229205096457795
aF0.20106555771972268
aF0.19232357694929994
aF0.18358159617887723
aF0.16609763463803176
aa.(lp0
S'Needle Tumor Puncture Detection Using a Force and Position Sensor'
p1
a(lp2
F0.6978833373514061
aF0.49635552870447597
aF0.4142516066631341
aF0.3433436739910661
aF0.2985597165139705
aF0.27616773777542275
aF0.27616773777542275
aF0.2612397519497242
aF0.2575077554932996
aF0.2500437625804503
aa.(lp0
S'How well does language-based community detection work for Reddit?'
p1
a(lp2
F0.3832812194032213
aF0.29995921518512975
aF0.29995921518512975
aF0.29995921518512975
aF0.19997281012341983
aF0.19997281012341983
aF0.18330840927980152
aF0.18330840927980152
aF0.18330840927980152
aF0.1666440084361832
aa.(lp0
S'Automated Pathology through Machine Learning'
p1
a(lp2
F0.35020619031766415
aF0.31670820689597456
aF0.27407440981382414
aF0.2679838673735169
aF0.25884805371305614
aF0.2527575112727489
aF0.2405764263921345
aF0.2070784429704449
aF0.2009879005301377
aF0.18880681564952329
aa.(lp0
S'Generating Motion Capture Animation for Arbitrary Rigs'
p1
a(lp2
F0.8446220006528654
aF0.5328222901314805
aF0.5130881312377219
aF0.41047050499017756
aF0.3986300096539224
aF0.29601238340637803
aF0.2683845609551161
aF0.23286307494635072
aF0.22891624316759904
aF0.20918208427384047
aa.(lp0
S'Predicting Congressional Bill Outcomes'
p1
a(lp2
F0.6195521244551043
aF0.43339561757657535
aF0.4101260542167592
aF0.378130404597012
aF0.372313013757058
aF0.2763260648978165
aF0.25305650153800036
aF0.2414217198580923
aF0.23851302443811528
aF0.20069998397841407
aa.(lp0
S'Rossman Store Sales Prediction'
p1
a(lp2
F0.6333711309485268
aF0.5709260898690945
aF0.41481348717051403
aF0.4103531270934117
aF0.3791306065536956
aF0.34344772593687717
aF0.28546304493454727
aF0.27654232478034263
aF0.24531980424062655
aF0.24085944416352426
aa.(lp0
S'Online Detection of Code Reuse Attacks'
p1
a(lp2
F0.7416525023299494
aF0.6204208432952462
aF0.549108102686597
aF0.4564015398953534
aF0.44213899177362365
aF0.39935134740843425
aF0.39935134740843425
aF0.3423011549215151
aF0.33160424383021775
aF0.32090733273892036
aa.(lp0
S'Predicting quality of wine based on chemical attributes'
p1
a(lp2
F0.4781958502951344
aF0.45211244027903613
aF0.38255668023610745
aF0.36226958355692
aF0.32749170353545565
aF0.29271382351399133
aF0.21446359346569663
aF0.19997281012341983
aF0.16809308677041088
aF0.16519493010195552
aa.(lp0
S'Kernel learning framework for cancer subtype analysiswith multi-omics data integration'
p1
a(lp2
F0.31711664563950603
aF0.31711664563950603
aF0.3029173928496774
aF0.293451224323125
aF0.2839850557965725
aF0.2745188872700201
aF0.2508534659536391
aF0.24138729742708667
aF0.16565794921466734
aF0.1514586964248387
aa.(lp0
S'Named Entity Recognition and Classification using Word Vectors'
p1
a(lp2
F0.30918197289946026
aF0.26702079477680657
aF0.21431932212348948
aF0.20729245910304722
aF0.18621187004172038
aF0.17215814400083582
aF0.1616178494701724
aF0.15810441795995125
aF0.15810441795995125
aF0.15107755493950897
aa.(lp0
S'Smart Adaptive Sampling for Photorealistic Rendering: Learning Samplers for Monte Carlo Ray Tracing'
p1
a(lp2
F0.5207973018239315
aF0.4887482370963049
aF0.2844354494576856
aF0.26440478400291906
aF0.22434345309338585
aF0.22033732000243253
aF0.22033732000243253
aF0.2083189207295726
aF0.2083189207295726
aF0.20431278763861926
aa.(lp0
S'User review sentiment classification and aggregation'
p1
a(lp2
F0.7099188821638819
aF0.6692464462065761
aF0.3364719701922565
aF0.30689201676876143
aF0.2810095575232032
aF0.2773120633452663
aF0.2625220866335188
aF0.2625220866335188
aF0.24033712156589748
aF0.24033712156589748
aa.(lp0
S'Building an AI for the Wikipedia Game'
p1
a(lp2
F0.6390192591653415
aF0.5451772700571446
aF0.5407086039091352
aF0.4870846101330226
aF0.45580394709695693
aF0.30386929806463797
aF0.2725886350285723
aF0.25471397043653476
aF0.22790197354847846
aF0.22343330740046907
aa.(lp0
S'Facial Keypoint Detection'
p1
a(lp2
F0.6474079345514271
aF0.4845867773588525
aF0.45357322360788604
aF0.3605325623549863
aF0.302382149071924
aF0.29075206641531154
aF0.29075206641531154
aF0.2442317357888617
aF0.22872495891337843
aF0.18995801672467022
aa.(lp0
S'Are you open?'
p1
a(lp2
F0.45722301293474327
aF0.3376875847165097
aF0.2749314849019371
aF0.26895471349102545
aF0.2659663277855696
aF0.24504762784737874
aF0.23309408502555537
aF0.22412892790918784
aF0.21815215649827618
aF0.21217538508736453
aa.(lp0
S'Autotagging and Evaluating Text Relevance'
p1
a(lp2
F0.5657025503111192
aF0.5474540809462444
aF0.3771350335407461
aF0.31630680232449676
aF0.31630680232449676
aF0.2737270404731222
aF0.2341886901825601
aF0.21289880925687282
aF0.20985739769606035
aF0.20377457457443543
aa.(lp0
S'Electric Guitar Pickups Recognition '
p1
a(lp2
F0.5987580465590985
aF0.5662672998465892
aF0.4687950597090616
aF0.4548704539751291
aF0.4455873834858407
aF0.4223797072626198
aF0.37596435481617807
aF0.30634132614651544
aF0.3016997909018713
aF0.29705825565722715
aa.(lp0
S'Learning to Rank Comments Within Subreddit Submissions'
p1
a(lp2
F0.47848479038594716
aF0.2972405516033914
aF0.21990967638950096
aF0.2150764966886328
aF0.20541013728689653
aF0.19332718803472612
aF0.18124423878255572
aF0.17157787938081945
aF0.16674469967995129
aF0.16191151997908312
aa.(lp0
S'Detecting Sarcasm In Text: An Obvious Solution to a Trivial Problem'
p1
a(lp2
F0.4737929834002781
aF0.43869720685210933
aF0.40798840237246164
aF0.30270107272795543
aF0.27199226824830774
aF0.2500574079057023
aF0.23250951963161792
aF0.22373557549457576
aF0.21934860342605467
aF0.21496163135753357
aa.(lp0
S'Improved Search for Explore Courses'
p1
a(lp2
F0.5574999554955947
aF0.4051397192110843
aF0.36358692749712695
aF0.3324223337116589
aF0.3254968684259994
aF0.25970494821223356
aF0.24931675028374423
aF0.22507762178393573
aF0.1973757606412975
aF0.19391302799846774
aa.(lp0
S'Predicting Corporate Influence Cascades In Health Care Communities'
p1
a(lp2
F0.5341466423230217
aF0.5062434595151026
aF0.49029878362486323
aF0.44246475595414486
aF0.37071371444806733
aF0.3069350108871095
aF0.3029488419145496
aF0.2830179970517503
aF0.22322546246335237
aF0.19133611068287346
aa.(lp0
S'A study of ensemble methods in machine learning'
p1
a(lp2
F0.47382092589752983
aF0.40249304457962204
aF0.39739819591405723
aF0.39739819591405723
aF0.38211364991736274
aF0.3566394065895385
aF0.32607031459614955
aF0.2955012226027605
aF0.2955012226027605
aF0.28531152527163084
aa.(lp0
S'Classification of High Grade vs Low Grade GBM Tumor'
p1
a(lp2
F0.5476433804209837
aF0.44309328052243235
aF0.28875741876742783
aF0.2788002663961372
aF0.2788002663961372
aF0.25390738546791064
aF0.2190573521683935
aF0.2190573521683935
aF0.20412162361145758
aF0.19914304742581226
aa.(lp0
S'Reducing False Arrhythmia Alarms in the Intensive Care Unit'
p1
a(lp2
F0.39225435831901584
aF0.38895810320709134
aF0.3592918071997708
aF0.34610678675207274
aF0.30655172540897874
aF0.30325547029705424
aF0.2768854294016582
aF0.27029291917780923
aF0.22414534761086619
aF0.20766407205124365
aa.(lp0
S'Predicting and Identifying Hyperlinks in Wikipedia Articles'
p1
a(lp2
F0.33083736968948135
aF0.2867257203975505
aF0.2734922256099712
aF0.22055824645965424
aF0.18085776209691645
aF0.1720354322385303
aF0.16762426730933722
aF0.16762426730933722
aF0.15880193745095103
aF0.14997960759256487
aa.(lp0
S'Predicting Rossman Store Sales'
p1
a(lp2
F0.5288754583527288
aF0.5012476359014668
aF0.4223110003264327
aF0.41047050499017756
aF0.36310852364515706
aF0.33942753297264683
aF0.3117997105213849
aF0.2683845609551161
aF0.25654406561886095
aF0.20128842071633707
aa.(lp0
S'Classifications of Subject Motion for Improved Reconstruction of Dynamic Magnetic Resonance Imaging'
p1
a(lp2
F0.5152673635081984
aF0.40730658258267105
aF0.38767734968712064
aF0.37786273323934544
aF0.36804811679157023
aF0.3189750345526942
aF0.2944384934332562
aF0.23064348652271735
aF0.22082887007494215
aF0.21592156185105454
aa.(lp0
S'Learning to recognize English sentence'
p1
a(lp2
F0.6199960217481129
aF0.6135711925071998
aF0.5878718755435475
aF0.5300484123753296
aF0.41761390065935067
aF0.2923297304615455
aF0.28590490122063233
aF0.2794800719797193
aF0.24414351115469732
aF0.23129385267287114
aa.(lp0
S'Service Capacity Estimation Through Telemetry Analysis'
p1
a(lp2
F0.6508266499191501
aF0.6148914361199331
aF0.4911145885892973
aF0.4312225655906025
aF0.41525135945761726
aF0.37133054259190773
aF0.3673377410586614
aF0.3353953287926908
aF0.3114385195932129
aF0.3114385195932129
aa.(lp0
S'Using Facebook Profiles to Predict Sexual Orientation'
p1
a(lp2
F0.8164864944458303
aF0.7318506992898602
aF0.632279175576954
aF0.47794331382194943
aF0.4032646710372699
aF0.3833503662946886
aF0.3534789091808168
aF0.2987145711387184
aF0.24892880928226535
aF0.22403592835403882
aa.(lp0
S'Language Identification from Text Documents'
p1
a(lp2
F0.6580458102781639
aF0.609789117524432
aF0.4036014303039405
aF0.3860535420298562
aF0.3728926258242929
aF0.3728926258242929
aF0.35973170961872963
aF0.3377968492761242
aF0.3158619889335187
aF0.29392712859091324
aa.(lp0
S'Whale Detection & Identification from Aerial Photography'
p1
a(lp2
F0.6333159512362327
aF0.3562402225703809
aF0.3117101947490833
aF0.20780679649938885
aF0.20780679649938885
aF0.2028590156303558
aF0.17317233041615737
aF0.17317233041615737
aF0.16327676867809124
aF0.14348564520195897
aa.(lp0
S'Object classification for autonomous vehicle navigation of Stanford campus'
p1
a(lp2
F0.7039042916344378
aF0.40394507644930805
aF0.3599510582221557
aF0.35595160201968734
aF0.3439532334122821
aF0.3159570399950033
aF0.3079581275900665
aF0.27996193417278775
aF0.2599646531604458
aF0.2199700911357618
aa.(lp0
S'Machine Learning Methods for News Popularity Prediction'
p1
a(lp2
F0.5413898030170634
aF0.5304156853883392
aF0.5194415677596149
aF0.4170164698915218
aF0.3804360777957743
aF0.3731199993766248
aF0.36580392095747527
aF0.25972078387980746
aF0.25240470546065796
aF0.24143058783193372
aa.(lp0
S'Machine Learning Equalization Techniques for High Speed PAM4 Fiber Optic Communication Systems'
p1
a(lp2
F0.5524732117996766
aF0.5440385062760174
aF0.4807782148485735
aF0.3837791013264929
aF0.3795617485646633
aF0.2909973405662419
aF0.2699105767570939
aF0.2699105767570939
aF0.23195440190062755
aF0.22351969637696836
aa.(lp0
S'Credit Estimation for Chinese Construction Companies'
p1
a(lp2
F0.7498980379628244
aF0.6374133322684007
aF0.5999184303702595
aF0.5249286265739771
aF0.4499388227776946
aF0.4124439208795534
aF0.2249694113888473
aF0.2249694113888473
aF0.2249694113888473
aF0.2249694113888473
aa.(lp0
S'Using Spectral Clustering to Sample Molecular States and Pathways'
p1
a(lp2
F0.6800694757233711
aF0.5958703977766681
aF0.4112801115088959
aF0.3529884421611783
aF0.34003473786168553
aF0.3108889031878268
aF0.3108889031878268
aF0.30765047711295357
aF0.2720277902893484
aF0.26878936421447525
aa.(lp0
S'Dynamic Eye Gaze Tracking and Prediction for Foveated Rendering and Retinal Blur'
p1
a(lp2
F0.4267545605917031
aF0.367665467586698
aF0.24948728157668792
aF0.2330736446308532
aF0.2265081898525193
aF0.2265081898525193
aF0.2265081898525193
aF0.22322546246335237
aF0.20352909812835068
aF0.20352909812835068
aa.(lp0
S'Predicting Bill Passage'
p1
a(lp2
F0.9772426920058526
aF0.5646291109367149
aF0.5374834806032189
aF0.48319221993622713
aF0.3420349422020484
aF0.3040310597351541
aF0.29860193366845494
aF0.29860193366845494
aF0.28231455546835743
aF0.27145630333495907
aa.(lp0
S'Autoranking Amazon Reviews'
p1
a(lp2
F0.6694032730395718
aF0.5950251315907304
aF0.4854152389292801
aF0.40320781943319234
aF0.3992931804095691
aF0.31317112188985813
aF0.3092564828662349
aF0.293597926771742
aF0.2779393706772491
aF0.2622808145827562
aa.(lp0
S'Scanning probe microscopy based on reinforcement learning'
p1
a(lp2
F0.8227452759363559
aF0.5223779529754641
aF0.5191130907693674
aF0.4831996065023042
aF0.4179023623803712
aF0.3232213584035684
aF0.31016190957918177
aF0.2775132875182153
aF0.25792411428163536
aF0.2415998032511521
aa.(lp0
S'Forecasting Drug Store Sales Using Machine Learning Techniques'
p1
a(lp2
F0.5817390839954032
aF0.4674689067820204
aF0.3687810264613716
aF0.32203413578316964
aF0.32203413578316964
aF0.25970494821223356
aF0.2545108492479889
aF0.23892855235525487
aF0.20776395856978683
aF0.1973757606412975
aa.(lp0
S'Thyroid Dysfunction: Prediction and Diagnostics'
p1
a(lp2
F0.5370550502150319
aF0.4532372100080615
aF0.36941936980109125
aF0.3601062764447612
aF0.28560152959412094
aF0.25455788507302085
aF0.2421404272645808
aF0.2421404272645808
aF0.2421404272645808
aF0.21730551164770073
aa.(lp0
S'A Personal Conversational Model'
p1
a(lp2
F0.6042343903009808
aF0.5409336446504018
aF0.4776328989998229
aF0.414332153349244
aF0.3682952474215502
aF0.3280129547348182
aF0.3049945017709712
aF0.2877306620480861
aF0.2877306620480861
aF0.2819760488071244
aa.(lp0
S'Prediction algorithm for crime recidivism'
p1
a(lp2
F0.6551740752727834
aF0.5051944676802185
aF0.5051944676802185
aF0.4815134770077083
aF0.46572614989270145
aF0.46572614989270145
aF0.34732119653015026
aF0.33942753297264683
aF0.31574654230013655
aF0.29995921518512975
aa.(lp0
S'Cuisine Classification from Ingredients'
p1
a(lp2
F0.8476459414186751
aF0.7998912404936793
aF0.6029030991780718
aF0.5342557165983903
aF0.5073936973280802
aF0.4059149578624642
aF0.4059149578624642
aF0.33129823766715827
aF0.22683482939372995
aF0.214896154162481
aa.(lp0
S'Determination of cell types in Chicken utricle'
p1
a(lp2
F0.1279825984789887
aF0.1279825984789887
aF0.1279825984789887
aF0.11731738193907297
aF0.11731738193907297
aF0.11731738193907297
aF0.10665216539915724
aF0.10665216539915724
aF0.09598694885924153
aF0.09598694885924153
aa.(lp0
S'A Soundhound for the sound of hounds'
p1
a(lp2
F0.6618147763608418
aF0.6332472320574961
aF0.2951979578012388
aF0.2856754430334569
aF0.2856754430334569
aF0.24282412657843838
aF0.23330161181065648
aF0.22377909704287458
aF0.2190178396589836
aF0.21425658227509267
aa.(lp0
S'Prediction of Airline Ticket Price'
p1
a(lp2
F0.3497679409538782
aF0.23465444139943728
aF0.23465444139943728
aF0.2302269991088819
aF0.22579955681832645
aF0.22579955681832645
aF0.2169446722372156
aF0.21251722994666017
aF0.18152513391277225
aF0.17709769162221684
aa.(lp0
S'Divergent Recommendations for Yelp Users'
p1
a(lp2
F0.4060986297890988
aF0.23493309161352818
aF0.22486453054437697
aF0.21815215649827618
aF0.21143978245217537
aF0.20808359542912497
aF0.16780935115252016
aF0.16780935115252016
aF0.16109697710641932
aF0.15102841603726813
aa.(lp0
S'Automating Neurological Disease Diagnosis Using Structural MR Brain Scan Features'
p1
a(lp2
F0.6594144730516075
aF0.5602544019160275
aF0.3321862383041933
aF0.3123542240770773
aF0.28260620273640324
aF0.22311016005505518
aF0.22311016005505518
aF0.19336213871438115
aF0.18840413515760215
aF0.17353012448726512
aa.(lp0
S'Predicting business ratings on Yelp'
p1
a(lp2
F0.6856210632802965
aF0.5501897421385096
aF0.5290285982101054
aF0.4486162512821693
aF0.41052619221104175
aF0.38090059071127585
aF0.33857830285446744
aF0.3343460740687866
aF0.2581659559265314
aF0.23277258321244634
aa.(lp0
S'Using machine learning for medium frequency derivative portfolio trading'
p1
a(lp2
F0.5906889160568709
aF0.5076232872363734
aF0.4660904728261247
aF0.43840192988595883
aF0.43840192988595883
aF0.3507215439087671
aF0.34610678675207274
aF0.34149202959537844
aF0.32303300096860127
aF0.29995921518512975
aa.(lp0
S'Classification of photographic images based on perceived aesthetic quality'
p1
a(lp2
F0.4398115823936308
aF0.4128056080361271
aF0.37808364100505104
aF0.35879365932111984
aF0.3202136959532575
aF0.2430537692175328
aF0.2083318021864567
aF0.19289981683931173
aF0.17360983515538056
aF0.16975183881859432
aa.(lp0
S'Predicting Short-Range Displacements From Sensor Data'
p1
a(lp2
F0.4659560624235025
aF0.41936045618115225
aF0.4100413349326822
aF0.3541266074418619
aF0.27491407682986646
aF0.24695671308445633
aF0.24695671308445633
aF0.22831847058751623
aF0.20968022809057613
aF0.19104198559363603
aa.(lp0
S'Predicting Intraday Market Volatility Using Macroeconomic Headline News'
p1
a(lp2
F0.6641656058062956
aF0.29703888902894626
aF0.2503136705300109
aF0.2102634832452092
aF0.20358845203107553
aF0.17688832717454103
aF0.1635382647462738
aF0.1435131711038729
aF0.13350062428267248
aF0.12682559306853886
aa.(lp0
S'Localization Through Wireless Access Point Channel State Information'
p1
a(lp2
F0.39356042166525
aF0.38311191489537616
aF0.33086938104600666
aF0.27514401160667923
aF0.2472813268870155
aF0.19852162862760403
aF0.17414177949789825
aF0.16717610831798232
aF0.16021043713806637
aF0.15672760154810844
aa.(lp0
S'Predicting Wine Varietals from Reviews'
p1
a(lp2
F1.242944771904849
aF0.610695408161342
aF0.5639951710666511
aF0.45981771908618696
aF0.42389445978257856
aF0.4203021338522177
aF0.4023405042004135
aF0.3843788745486094
aF0.34486328931464016
aF0.33049398559319687
aa.(lp0
S'Rossmann Time Series'
p1
a(lp2
F0.47993474429620764
aF0.47993474429620764
aF0.31995649619747174
aF0.31995649619747174
aF0.31995649619747174
aF0.27996193417278775
aF0.27996193417278775
aF0.23996737214810382
aF0.23996737214810382
aF0.23996737214810382
aa.(lp0
S'Bitcoin UTXO Lifespan Prediction'
p1
a(lp2
F0.39871501833838785
aF0.2658100122255919
aF0.2215083435213266
aF0.19566570344383846
aF0.18459028626777216
aF0.18459028626777216
aF0.1808984805424167
aF0.1772066748170613
aF0.17351486909170583
aF0.16613125764099496
aa.(lp0
S'Exploring Commodity and Stock Volatility using Topic Modeling on Historical News Articles -- Application to Crude Oil Prices'
p1
a(lp2
F0.567364717094354
aF0.40924668118281265
aF0.3813434983748936
aF0.3255371327590555
aF0.3069350108871095
aF0.28833288901516346
aF0.283682358547177
aF0.2697307671432175
aF0.2697307671432175
aF0.26508023667523095
aa.(lp0
S'Drug and Chemical Compound Named Entity Recognition using Convolutional Networks'
p1
a(lp2
F0.4376393935136777
aF0.41707915354994785
aF0.38183302789783957
aF0.3465869022457313
aF0.3260266622820015
aF0.27903182807919047
aF0.27903182807919047
aF0.2731574738038391
aF0.26140876525313633
aF0.25553441097778495
aa.(lp0
S'Object Classification Using RGB-D Data for Vision Aids'
p1
a(lp2
F1.1955053197270153
aF0.9399443999302983
aF0.5760949547959893
aF0.5631003317554782
aF0.5197849216204414
aF0.5154533806069378
aF0.511121839593434
aF0.485132593512412
aF0.472137970471901
aF0.45914334743138996
aa.(lp0
S'Spacecraft Navigation in Cluttered, Dynamic Environments Using 3D Lidar'
p1
a(lp2
F0.46910914856020286
aF0.38250438267216547
aF0.2922910848721264
aF0.2598142976641124
aF0.2489887019281077
aF0.238163106192103
aF0.23455457428010143
aF0.2309460423680999
aF0.2129033828080921
aF0.19125219133608273
aa.(lp0
S'Medical Record Understanding'
p1
a(lp2
F0.38737590075336753
aF0.32909811037454234
aF0.3188137944253379
aF0.3153856891089364
aF0.30510137315973196
aF0.2845327412613231
aF0.27082031999571715
aF0.2159706349332934
aF0.2159706349332934
aF0.20568631898408898
aa.(lp0
S'Predicting Recidivism'
p1
a(lp2
F0.8770381114042372
aF0.602963701590413
aF0.40806634350058263
aF0.31061766445566735
aF0.30452712201536014
aF0.27407440981382414
aF0.2314406127316737
aF0.2314406127316737
aF0.22535007029136653
aF0.2192595278510593
aa.(lp0
S'Using DNA methylation to predict white blood cells frequencies in tumor tissue samples'
p1
a(lp2
F0.44823062679144676
aF0.33343985651558844
aF0.29517626642363565
aF0.23504776770770988
aF0.2077166319277436
aF0.18038549614777732
aF0.16945304183579082
aF0.16945304183579082
aF0.1530543603678111
aF0.1421219060558246
aa.(lp0
S'Question Answering on the bAbI Dataset using LSTMs'
p1
a(lp2
F0.4956188862666719
aF0.4077876912320718
aF0.3074091826211003
aF0.2854513838624503
aF0.2791777270742646
aF0.269767241891986
aF0.24780944313333594
aF0.21330433079831448
aF0.2038938456160359
aF0.19762018882785018
aa.(lp0
S'How Fire is Your Mixtape?'
p1
a(lp2
F0.8231438928336119
aF0.6452611024331278
aF0.613870021774219
aF0.46389041418165416
aF0.28600762378117023
aF0.2581044409732512
aF0.2546165431222613
aF0.25112864527127143
aF0.24415284956929165
aF0.2197375646123625
aa.(lp0
S'Using Pre-NBA Data to Predict Early NBA Career Success'
p1
a(lp2
F0.5292960624828064
aF0.4371152875560255
aF0.34196093924450977
aF0.3211459255513656
aF0.24978016431772887
aF0.24978016431772887
aF0.24383301754825915
aF0.24085944416352426
aF0.2378858707787894
aF0.22599157723984992
aa.(lp0
S'Automatic Rhythmic Notation from Single-Voice Audio Sources'
p1
a(lp2
F0.5290346965224767
aF0.390724971941437
aF0.3768939994833331
aF0.34923205456712514
aF0.32502785276544316
aF0.30082365096376124
aF0.28007719227660527
aF0.21092232998608548
aF0.20054910064250747
aF0.1936336144134555
aa.(lp0
S'Using Social Media Metrics to Predict Artist and Album Success'
p1
a(lp2
F0.5092555164557829
aF0.4591015640775619
aF0.3472196703107611
aF0.3163556996164712
aF0.2430537692175328
aF0.21604779486002915
aF0.21604779486002915
aF0.19675781317609797
aF0.19289981683931173
aF0.19289981683931173
aa.(lp0
S'Long-Short Strategy Using Bank Analysts Recommendations'
p1
a(lp2
F0.49977306441020025
aF0.4120266485213865
aF0.3357254173137223
aF0.2861296170287406
aF0.2784994939079742
aF0.26705430922682455
aF0.24797900142490853
aF0.24034887830414212
aF0.2327187551833757
aF0.2289036936229925
aa.(lp0
S'Blind Audio Source Separation Pipeline and Algorithm Evaluation'
p1
a(lp2
F0.4624371234104084
aF0.31245751581784353
aF0.3082914156069389
aF0.24163381223246563
aF0.20830501054522899
aF0.2041389103343244
aF0.1874745094907061
aF0.17081010864708776
aF0.17081010864708776
aF0.15831180801437403
aa.(lp0
S'Forecast sales using store, promotion, and competitor data'
p1
a(lp2
F1.4642076944630062
aF0.6507589753168916
aF0.3253794876584458
aF0.2440346157438344
aF0.20336217978652862
aF0.20336217978652862
aF0.20336217978652862
aF0.20336217978652862
aF0.20336217978652862
aF0.20336217978652862
aa.(lp0
S'Clustering Music by Genres'
p1
a(lp2
F0.46940601133175697
aF0.4211493185780249
aF0.28076621238535
aF0.27199226824830774
aF0.24567043583718123
aF0.1974137430834492
aF0.1974137430834492
aF0.1974137430834492
aF0.1930267710149281
aF0.1842528268778859
aa.(lp0
S'Machine Learning for Daily Fantasy Football Quarterback Selection'
p1
a(lp2
F0.28273033537331815
aF0.25445730183598636
aF0.20497949314565567
aF0.2014453639534892
aF0.19791123476132272
aF0.19437710556915624
aF0.17670645960832387
aF0.17670645960832387
aF0.15903581364749148
aF0.1519675552631585
aa.(lp0
S'Plead or Pitch? Predicting the Performance of Kickstarter Campaigns'
p1
a(lp2
F0.9070766667198323
aF0.4655367019673214
aF0.30715823634957284
aF0.28316149913476246
aF0.2639641093629142
aF0.2591647619199521
aF0.22556932981921757
aF0.21117128749033132
aF0.21117128749033132
aF0.21117128749033132
aa.(lp0
S'Forecasting Rossmann Store sales using store, promotion, and competitor data in machine learning techniques'
p1
a(lp2
F1.196211975964868
aF0.6597290291685028
aF0.6162304118606896
aF0.5944811032067828
aF0.5147336381424583
aF0.4204866339755293
aF0.34798893846250706
aF0.3189898602572981
aF0.23199262564167134
aF0.20299354743646245
aa.(lp0
S'Robust Streaming Video Traffic Classification'
p1
a(lp2
F0.5830667890677241
aF0.5224008803785968
aF0.49543825429454014
aF0.47184595647099065
aF0.46173497168946936
aF0.3235515130086793
aF0.2864779021431014
aF0.2763669173615802
aF0.27299658910107316
aF0.23592297823549532
aa.(lp0
S'ECG R-R Interval Estimation'
p1
a(lp2
F0.48338751224078463
aF0.46267090457332244
aF0.34527679445770326
aF0.3245601867902411
aF0.28657973939989373
aF0.25550482789870044
aF0.2520520599541234
aF0.24859929200954636
aF0.23133545228666122
aF0.23133545228666122
aa.(lp0
S'Machine Learning Applied to Visual Odometry'
p1
a(lp2
F0.6075123345521616
aF0.40500822303477435
aF0.40500822303477435
aF0.3341317840036888
aF0.3341317840036888
aF0.3088187700640155
aF0.26325534497260333
aF0.2480675366087993
aF0.2430049338208646
aF0.23794233103292992
aa.(lp0
S'The Price is Right? Estimating Medical Costs with Machine Learning'
p1
a(lp2
F0.6567154415295741
aF0.5040734740389162
aF0.47922478165671617
aF0.40822851770757307
aF0.4011288913126587
aF0.3549813197457157
aF0.31948318777114415
aF0.29463449538894404
aF0.26978580300674393
aF0.2555865502169153
aa.(lp0
S'Photo aesthetics evaluation system: an application of CNN and SVM'
p1
a(lp2
F0.29677943551885627
aF0.2713411981886686
aF0.237423548415085
aF0.2247044297499912
aF0.22046472352829324
aF0.2162250173065953
aF0.20350589864150145
aF0.19926619241980348
aF0.18230736753301172
aF0.17382795508961582
aa.(lp0
S'Classifying Non-Manual Markers in American Sign Language'
p1
a(lp2
F0.4982616080402155
aF0.3407651227401474
aF0.2749029561601189
aF0.2548579489401102
aF0.21190436204009166
aF0.20617721712008916
aF0.18899578236008174
aF0.17467792006007554
aF0.17181434760007433
aF0.1689507751400731
aa.(lp0
S'Predicting Win Percentage and Winning Features of NBA Teams'
p1
a(lp2
F1.2472316639714336
aF0.5038815922444592
aF0.394125205814973
aF0.3891362791590873
aF0.32926915928845846
aF0.319291305976687
aF0.3093134526649155
aF0.2793798927296011
aF0.26940203941782964
aF0.2644131127619439
aa.(lp0
S'Predicting Default Rate of a Lending Club User'
p1
a(lp2
F0.6087667848004994
aF0.6016881012563075
aF0.4105636455631274
aF0.3256194430328252
aF0.3114620759444415
aF0.2902260253118659
aF0.26898997467929037
aF0.24067524050252298
aF0.23359655695833112
aF0.23359655695833112
aa.(lp0
S'Anonymous Marketplace Vendor Exit Scam Detection'
p1
a(lp2
F0.766998516585528
aF0.5382445730424757
aF0.41713954410791876
aF0.40368342978185684
aF0.3678004582456918
aF0.3139760009414442
aF0.29154914373134105
aF0.255666172195176
aF0.24221005786911412
aF0.22426857210103157
aa.(lp0
S'Advanced machine learning techniques for thyroid cancer diagnosis '
p1
a(lp2
F0.5219021322503602
aF0.3927717077760443
aF0.3658695360105618
aF0.30668475812650037
aF0.29592388942030734
aF0.2582608489486319
aF0.2474999802424389
aF0.23673911153624588
aF0.23673911153624588
aF0.23673911153624588
aa.(lp0
S'Speech to Song Classification'
p1
a(lp2
F0.20642354593385273
aF0.1838459705973376
aF0.16771913107125533
aF0.16126839526082243
aF0.16126839526082243
aF0.14836692363995665
aF0.12901471620865795
aF0.11611324458779215
aF0.10321177296692637
aF0.09676103715649347
aa.(lp0
S'Calorie Estimation from Food Images'
p1
a(lp2
F0.5159708001819296
aF0.29484045724681696
aF0.27436542549356574
aF0.1842752857792606
aF0.16789526037665967
aF0.15561024132470894
aF0.15561024132470894
aF0.13513520957145778
aF0.13104020322080753
aF0.13104020322080753
aa.(lp0
S'Playing Tetris with Genetic Algorithms'
p1
a(lp2
F0.8204289885604089
aF0.6388320582861682
aF0.5253339768647678
aF0.5188483722121163
aF0.47993474429620764
aF0.4312927094013217
aF0.3826506745064358
aF0.35670825589583
aF0.2886094070429897
aF0.285366604716664
aa.(lp0
S'Computer aided detection of endolymphatic hydrops to aid the diagnosis of Meniere\xe2\x80\x99s disease'
p1
a(lp2
F1.0793713124733986
aF0.7276119115334071
aF0.6987001799492982
aF0.3613966448013612
aF0.3565780228706763
aF0.33248491321725226
aF0.32766629128656743
aF0.313210425494513
aF0.30839180356382817
aF0.2987545597024585
aa.(lp0
S'Predicting Optimal Game Day Fantasy Football Teams'
p1
a(lp2
F0.3983894116077469
aF0.3579279869913351
aF0.3423659006004075
aF0.3143541450967378
aF0.29879205870581016
aF0.29567964142762465
aF0.273892720480326
aF0.2645554686457694
aF0.21164437491661556
aF0.20541954036024448
aa.(lp0
S'Automatic Playlist Generation'
p1
a(lp2
F0.24559560475712114
aF0.214896154162481
aF0.2097795790633743
aF0.19954642886516094
aF0.18931327866694755
aF0.18419670356784087
aF0.16884697827052078
aF0.15861382807230742
aF0.15861382807230742
aF0.14326410277498733
aa.(lp0
S'Predicting Final Scores of Major League Baseball Games'
p1
a(lp2
F0.873589085123434
aF0.5931777738492453
aF0.37747676517679246
aF0.3451216138759246
aF0.3397290886591132
aF0.3073739373582453
aF0.2804113112741887
aF0.26962626084056607
aF0.23727110953969813
aF0.22109353388926417
aa.(lp0
S'Gradient Boosting Trees to Predict Store Sales'
p1
a(lp2
F0.506353170587742
aF0.42196097548978495
aF0.3632533615085975
aF0.3412380062656522
aF0.27152271466299205
aF0.19079974543885928
aF0.17612284194356242
aF0.16878439019591399
aF0.15043826082679287
aF0.14676903495296867
aa.(lp0
S'Vision-Based Hand Hygiene Monitoring in Hospitals'
p1
a(lp2
F0.8625161774718322
aF0.520925612136453
aF0.4782267914695307
aF0.31597127293522564
aF0.29462186260176443
aF0.27327245226830327
aF0.27327245226830327
aF0.23057363160138086
aF0.22630374953468863
aF0.2006844571345352
aa.(lp0
S'Prediction of Yelp Ratings Based on Reviewer Comments Segmented by Business Type'
p1
a(lp2
F0.5020088942564189
aF0.49132785395309087
aF0.41656057182979445
aF0.41656057182979445
aF0.38807779768758627
aF0.35959502354537815
aF0.34891398324205003
aF0.3311122494031699
aF0.30262947526096173
aF0.24922427374432146
aa.(lp0
S'Using Decision Tree to predict repeat customers'
p1
a(lp2
F0.7713236961903337
aF0.36423618986765754
aF0.321384873412639
aF0.2871038202486242
aF0.2828186886031223
aF0.26139303037561307
aF0.21854171392059452
aF0.2099714506295908
aF0.2014011873385871
aF0.2014011873385871
aa.(lp0
S'Recommendation System Leveraging Heterogeneity of Relations  in a Social Network'
p1
a(lp2
F0.41616719085824994
aF0.3960300687199475
aF0.3591120114663931
aF0.3356187023050403
aF0.3121253931436874
aF0.30205683207453626
aF0.29870064505148586
aF0.275207335890133
aF0.2718511488670826
aF0.2617825877979314
aa.(lp0
S'Prediction of Post-Collegiate Earnings'
p1
a(lp2
F0.46910914856020286
aF0.38250438267216547
aF0.2922910848721264
aF0.2598142976641124
aF0.2489887019281077
aF0.238163106192103
aF0.23455457428010143
aF0.2309460423680999
aF0.2129033828080921
aF0.19125219133608273
aa.(lp0
S'Predicting Running Ability from Race History'
p1
a(lp2
F0.5609626881384244
aF0.2804813440692122
aF0.24931675028374423
aF0.21815215649827618
aF0.18698756271280814
aF0.18698756271280814
aF0.1558229689273401
aF0.1558229689273401
aF0.1558229689273401
aF0.1558229689273401
aa.(lp0
S'Planet Labels - How do we use our earth?'
p1
a(lp2
F0.5725362613492103
aF0.3783717901090433
aF0.3385431806238809
aF0.3186288758812996
aF0.27382169021049185
aF0.23897165691097472
aF0.2190573521683935
aF0.21407877598274822
aF0.21407877598274822
aF0.20412162361145758
aa.(lp0
S'Offline Music Recommendation'
p1
a(lp2
F0.45744991782675687
aF0.29075206641531154
aF0.28687537219644077
aF0.2636152068832158
aF0.22872495891337843
aF0.22872495891337843
aF0.21321818203789514
aF0.20934148781902434
aF0.19383471094354104
aF0.151191074535962
aa.(lp0
S'Application of Deep Learning in Yelp Review Analysis'
p1
a(lp2
F0.5151841887925392
aF0.3186007483322282
aF0.3152113786691194
aF0.2542027247331608
aF0.2440346157438344
aF0.2440346157438344
aF0.23047713709139914
aF0.22708776742829032
aF0.2203090281020727
aF0.20675154944963745
aa.(lp0
S'Matching Handwriting With Its Author'
p1
a(lp2
F0.49264824745637203
aF0.4025942667385406
aF0.3337294579543165
aF0.31254028602070916
aF0.31254028602070916
aF0.31254028602070916
aF0.2966484070705036
aF0.28605382110369987
aF0.2754592351368962
aF0.2648646491700925
aa.(lp0
S'Unsupervised learning of emergent structure in simulated neural data'
p1
a(lp2
F0.43146842775397976
aF0.27188421474908314
aF0.24824210911872807
aF0.24824210911872807
aF0.224600003488373
aF0.18322631863525168
aF0.17731579222766292
aF0.17140526582007412
aF0.17140526582007412
aF0.1595842130048966
aa.(lp0
S'Emotion Calssification on Face Images'
p1
a(lp2
F0.7245958547748366
aF0.4371043820301646
aF0.2698899540052023
aF0.2522884352657326
aF0.24935484880915432
aF0.2317533300696846
aF0.2112182248736366
aF0.20535105196048004
aF0.19655029259074516
aF0.19655029259074516
aa.(lp0
S'Sales Prediction for Rossmann Drug Stores'
p1
a(lp2
F0.5399265873332335
aF0.4253967051716386
aF0.40358148952181094
aF0.31632062692250046
aF0.31086682301004354
aF0.28905160736021596
aF0.2781439995353021
aF0.2508749799730176
aF0.22905976432319
aF0.22905976432319
aa.(lp0
S'A Movie Recommender System from Tweets Data'
p1
a(lp2
F0.742672742998511
aF0.47643157098017686
aF0.43439349118780834
aF0.38184589144734765
aF0.3503173316030712
aF0.3363046383389484
aF0.304776078494672
aF0.25923482538627274
aF0.255731652070242
aF0.24171895880611916
aa.(lp0
S'Sign Language Recognition using Temporal Classification'
p1
a(lp2
F0.41016787252151926
aF0.3718344264914707
aF0.314334257446398
aF0.2721674668133446
aF0.2721674668133446
aF0.26450077760733487
aF0.26066743300433
aF0.22616733157728633
aF0.22233398697428147
aF0.19933391935625236
aa.(lp0
S'Discriminative market price model for Magic: The Gathering cards based on card mechanics'
p1
a(lp2
F0.25259723384010924
aF0.24111554139283156
aF0.24111554139283156
aF0.22389300272191504
aF0.2066704640509985
aF0.2066704640509985
aF0.20092961782735966
aF0.20092961782735966
aF0.20092961782735966
aF0.19518877160372078
aa.(lp0
S'Extracting keywords from emails using distributed word vectors'
p1
a(lp2
F0.45757970526057634
aF0.44360780586330684
aF0.44360780586330684
aF0.42264995676740263
aF0.3458045100824203
aF0.31087476158924654
aF0.28293096279470753
aF0.28293096279470753
aF0.2759450130960728
aF0.2095784909590426
aa.(lp0
S'The Lowest Form of Wit: Identifying Sarcasm in Social Media'
p1
a(lp2
F0.7639777562266161
aF0.6219562502614119
aF0.6170589569522669
aF0.2938375985486985
aF0.2938375985486985
aF0.26935113200297367
aF0.2546592520755387
aF0.24976195876639373
aF0.24486466545724878
aF0.19589173236579902
aa.(lp0
S"What can we learn from a movie's color?"
p1
a(lp2
F0.7597293372052938
aF0.41165950870595214
aF0.36145712959547016
aF0.33468252740321314
aF0.2978674493888597
aF0.24097141973031344
aF0.23427776918224918
aF0.2275841186341849
aF0.20415634171596
aF0.19411586589386362
aa.(lp0
S'Machine Hound: Following an olfactory trail'
p1
a(lp2
F0.670695323840908
aF0.5021789108155543
aF0.488697597773526
aF0.4044393912608491
aF0.35388446735324297
aF0.31344052822715807
aF0.31344052822715807
aF0.26288560431955194
aF0.24266363475650946
aF0.22918232171448114
aa.(lp0
S'Win Some, Learn Some'
p1
a(lp2
F0.672080970468657
aF0.6117660115804442
aF0.43943755761412184
aF0.38343081007506713
aF0.34034869658348654
aF0.3317322738851704
aF0.29726658309190596
aF0.2929583717427479
aF0.2584926809494834
aF0.21971877880706092
aa.(lp0
S'Human Activity Recognition: Accelerometers Unveil Your Actions'
p1
a(lp2
F1.1053291628054782
aF0.5259558841602274
aF0.33283145794514396
aF0.32050436691013867
aF0.25886891173511195
aF0.2177786082850942
aF0.2013424869050871
aF0.18490636552508
aF0.1807973351800782
aF0.17668830483507644
aa.(lp0
S'Predicting Song Popularity'
p1
a(lp2
F1.1578425706146007
aF0.5579241402443413
aF0.5279282187258284
aF0.4679363756888024
aF0.43794045417028943
aF0.4259420855628842
aF0.4199429012591816
aF0.413943716955479
aF0.38994697974066866
aF0.3719494268295609
aa.(lp0
S'Deep Reinforcement Learning for Flappy Bird'
p1
a(lp2
F0.43525382107119953
aF0.3813285689030863
aF0.308144298103504
aF0.25421904593539085
aF0.23881183103021564
aF0.20029379376727766
aF0.19644199004098384
aF0.19259018631469005
aF0.18873838258839623
aF0.18873838258839623
aa.(lp0
S'SpeakerTagger: a Speaker Diarization System'
p1
a(lp2
F0.6781686604185542
aF0.4463161269421254
aF0.42892718693139326
aF0.4173345602575718
aF0.39414930690992894
aF0.35937142688846463
aF0.35937142688846463
aF0.33038986020391103
aF0.32459354686700026
aF0.3130009201931789
aa.(lp0
S'Predicting and Evaluating the Popularity of Online News'
p1
a(lp2
F0.3655522622403547
aF0.3537602537809884
aF0.33607224109193895
aF0.31248822417320643
aF0.294800211484157
aF0.27121619456542445
aF0.27121619456542445
aF0.2653201903357413
aF0.25942418610605816
aF0.24763217764669188
aa.(lp0
S'Classification of Irish and Scandinavian Folk Music by Dance Type'
p1
a(lp2
F0.4888815970527281
aF0.3323116738136191
aF0.2620149735838151
aF0.2620149735838151
aF0.25242905991611453
aF0.24603845080431413
aF0.23325723258071343
aF0.23325723258071343
aF0.22367131891301287
aF0.22367131891301287
aa.(lp0
S'FarmX: Leaf based disease identification in farms'
p1
a(lp2
F0.4199429012591816
aF0.3249558164505572
aF0.2749626139197023
aF0.2349680518950183
aF0.2249694113888473
aF0.2099714506295908
aF0.19497348987033433
aF0.19497348987033433
aF0.18997416961724883
aF0.18997416961724883
aa.(lp0
S'Feature Engineering on Machine Comprehension'
p1
a(lp2
F0.8301196885355916
aF0.46737831203264407
aF0.3836687636088869
aF0.3627413765029476
aF0.33483819369502854
aF0.29298341948315
aF0.2581044409732512
aF0.23020125816533213
aF0.22322546246335237
aF0.20927387105939285
aa.(lp0
S'Predicting Stock Prices through Textual Analysis of Web News'
p1
a(lp2
F0.36794997062709245
aF0.3615508407031431
aF0.3455530158932694
aF0.32955519108339587
aF0.2559651969579774
aF0.25276563199600266
aF0.2047721575663819
aF0.19197389771848306
aF0.18877433275650832
aF0.1855747677945336
aa.(lp0
S'KPI-Driven Predictive ML Models Approach Towards Municipal Budgeting Optimization'
p1
a(lp2
F0.8056666285116842
aF0.6453996110120481
aF0.5631003317554782
aF0.5501057087149672
aF0.5284480036474488
aF0.4288225603368642
aF0.4028333142558421
aF0.39850177324233843
aF0.3898386912153311
aF0.363849445134309
aa.(lp0
S'Spoken Character Recognition'
p1
a(lp2
F0.5316424329836594
aF0.3896283584195312
aF0.3896283584195312
aF0.28766953565554176
aF0.2658212164918297
aF0.26217982996454436
aF0.258538443437259
aF0.24033151080083234
aF0.22940735121897632
aF0.20391764552797895
aa.(lp0
S'Methods for Prediction of Type 2 Diabetes'
p1
a(lp2
F0.5545191978016993
aF0.5350623838437449
aF0.3242802326325727
aF0.26590979075870963
aF0.2626669884323839
aF0.2529385814534067
aF0.22375336051647518
aF0.20753934888484654
aF0.20105374423219508
aF0.19456813957954364
aa.(lp0
S'Predicting Bill Votes in the House of Representatives'
p1
a(lp2
F0.5754519364726143
aF0.3484028731024672
aF0.3249150389607278
aF0.3170857609134814
aF0.27011009263000263
aF0.20747586825203101
aF0.1918173121575381
aF0.1918173121575381
aF0.16441483899217552
aF0.15658556094492906
aa.(lp0
S'Melody Extraction from Generic Audio Clips'
p1
a(lp2
F0.5800864161431435
aF0.46109433078044737
aF0.34706024897453025
aF0.34706024897453025
aF0.28756420629318225
aF0.27764819917962424
aF0.27764819917962424
aF0.2528581813957292
aF0.22311016005505518
aF0.22311016005505518
aa.(lp0
S'Algorithmic Trading of Cryptocurrency Based on Twitter Sentiment Analysis'
p1
a(lp2
F0.7772077575543064
aF0.4763531417268329
aF0.3689050646455924
aF0.33308903895184555
aF0.3151810261049721
aF0.3115994235355975
aF0.3044362183968481
aF0.2650385901337266
aF0.2542937824256025
aF0.22922256443997974
aa.(lp0
S'Condition Monitoring Using Accelerometer Readings'
p1
a(lp2
F0.5735483894748635
aF0.5010307770125244
aF0.48784575656482637
aF0.48784575656482637
aF0.48125324634097744
aF0.42851316455018534
aF0.3164404907447523
aF0.3098479805209033
aF0.2768854294016582
aF0.27029291917780923
aa.(lp0
S'Application of Unsupervised Learning For Business Segmentation, Using Yelp Data'
p1
a(lp2
F0.5229431531537089
aF0.5033938764002992
aF0.4056474926332508
aF0.3812108966914887
aF0.3567743007497266
aF0.3567743007497266
aF0.337225023996317
aF0.2981264704894976
aF0.24925327860597338
aF0.23459132104091612
aa.(lp0
S'Predicting Movie Revenue from Pre-Release Data'
p1
a(lp2
F0.5896554401150917
aF0.3433436739910661
aF0.2985597165139705
aF0.27989973423184733
aF0.2500437625804503
aF0.2500437625804503
aF0.24257976966760103
aF0.2351157767547518
aF0.22391978738547788
aF0.22018779092905327
aa.(lp0
S'Doctor Bayes'
p1
a(lp2
F0.3918542348661232
aF0.3433059225818248
aF0.31556402984793996
aF0.29475761029752634
aF0.29128987370579074
aF0.29128987370579074
aF0.20806419550413624
aF0.20459645891240064
aF0.20112872232066503
aF0.19766098572892943
aa.(lp0
S'Spectral Transition-Based Playlist Prediction'
p1
a(lp2
F0.3861923320677874
aF0.3696883862529247
aF0.2607623438748308
aF0.2541607655488857
aF0.2442583980599681
aF0.16834024731159963
aF0.16503945814862708
aF0.16173866898565453
aF0.158437879822682
aF0.1551370906597095
aa.(lp0
S'Quantifying decision impact in MOBA games'
p1
a(lp2
F0.357715337363633
aF0.3130009201931789
aF0.27201270445359593
aF0.25338169729924004
aF0.24592929443749767
aF0.2384768915757553
aF0.2384768915757553
aF0.19748867583617238
aF0.19748867583617238
aF0.19003627297443001
aa.(lp0
S'Contextual Code Completion'
p1
a(lp2
F0.6014766600595328
aF0.4020232598325375
aF0.2711319659335718
aF0.268015506555025
aF0.2617825877979314
aF0.24931675028374423
aF0.20568631898408898
aF0.17140526582007412
aF0.17140526582007412
aF0.15893942830588692
aa.(lp0
S'Identifying injury-inducing factors in baseball pitchers'
p1
a(lp2
F0.8350864550754011
aF0.3983458377658523
aF0.3455530158932694
aF0.33595432100734535
aF0.32635562612142116
aF0.3215562786784591
aF0.23996737214810382
aF0.2159706349332934
aF0.2159706349332934
aF0.2159706349332934
aa.(lp0
S'Pedestrian Detection with RCNN'
p1
a(lp2
F0.47702604887623057
aF0.3519521458172189
aF0.3344999732973568
aF0.3083217145175636
aF0.2821434557377705
aF0.2792347603177935
aF0.2763260648978165
aF0.27341736947783946
aF0.2675999786378854
aF0.2646912832179084
aa.(lp0
S'Improved Search for Explore Courses'
p1
a(lp2
F0.4086637809061713
aF0.3563548169501814
aF0.31385378373593953
aF0.25500619928545093
aF0.2125051660712091
aF0.17981206359871538
aF0.17327344310421663
aF0.1536575816207204
aF0.15038827137347102
aF0.15038827137347102
aa.(lp0
S'Unsupervised Learning for Analyzing Brain Tumors'
p1
a(lp2
F0.46920994554098505
aF0.4155859517648725
aF0.3887739548768162
aF0.30833796421264736
aF0.25024530428852537
aF0.245776638140516
aF0.24130797199250661
aF0.1966213105124128
aF0.18768397821639404
aF0.18768397821639404
aa.(lp0
S'Blind Audio Source Separation Pipeline and Algorithm Evaluation'
p1
a(lp2
F0.5292960624828064
aF0.4371152875560255
aF0.34196093924450977
aF0.3211459255513656
aF0.24978016431772887
aF0.24978016431772887
aF0.24383301754825915
aF0.24085944416352426
aF0.2378858707787894
aF0.22599157723984992
aa.(lp0
S'Multiclass Emotion Analysis of Social Media Posts'
p1
a(lp2
F0.6158858410645249
aF0.5155192595577135
aF0.4197147953921207
aF0.34215880059140275
aF0.31478609654409057
aF0.28741339249677833
aF0.2828512751555596
aF0.27828915781434094
aF0.2691649231319035
aF0.22810586706093516
aa.(lp0
S'Clustering Bach chorale melodies'
p1
a(lp2
F0.649657860299435
aF0.5440884580007768
aF0.3532514615378178
aF0.34513073828407487
aF0.3329496534034604
aF0.320768568522846
aF0.31670820689597456
aF0.30452712201536014
aF0.28016495225413135
aF0.2436216976122881
aa.(lp0
S'3D model classification using convolutional neural network'
p1
a(lp2
F0.7054720072060067
aF0.2939466696691695
aF0.2939466696691695
aF0.2886021847660937
aF0.2886021847660937
aF0.26722424515379045
aF0.251190790444563
aF0.24050182063841136
aF0.21377939612303234
aF0.19240145651072912
aa.(lp0
S'Predicting Short-term Market Response to Liquidity Shocks'
p1
a(lp2
F0.548705881436213
aF0.43164862672982085
aF0.32556548965215304
aF0.32556548965215304
aF0.30727529360427924
aF0.2706949015085317
aF0.2487466662510832
aF0.2341145094127842
aF0.2267984309936347
aF0.2267984309936347
aa.(lp0
S'Machine Learning in Automatic Music Chords Generation'
p1
a(lp2
F0.42945495172502096
aF0.32397478814343683
aF0.31267334204541
aF0.30137189594738306
aF0.2750018550519871
aF0.24486466545724878
aF0.22602892196053734
aF0.2034260297644836
aF0.19589173236579902
aF0.1921245836664567
aa.(lp0
S'Prediction of clinical outcomes in breast invasive carcinoma using omics data'
p1
a(lp2
F0.5142157974602224
aF0.5142157974602224
aF0.34281053164014824
aF0.2856754430334569
aF0.2571078987301112
aF0.2571078987301112
aF0.2571078987301112
aF0.2571078987301112
aF0.2571078987301112
aF0.2571078987301112
aa.(lp0
S'Automatic Image Colorization'
p1
a(lp2
F0.4325942423078062
aF0.4189906497824034
aF0.4081077757620813
aF0.3292069391147456
aF0.3237655021045845
aF0.26663041349789307
aF0.2067746063861212
aF0.2013331693759601
aF0.19045029535563793
aF0.1768467028302352
aa.(lp0
S'Diagnosing Type II Diabetes'
p1
a(lp2
F0.8205335950870646
aF0.41800768051605175
aF0.4102667975435323
aF0.4102667975435323
aF0.340598850790857
aF0.3328579678183375
aF0.31737620187329857
aF0.3018944359282596
aF0.29415355295574014
aF0.2786717870107012
aa.(lp0
S'Advanced machine learning techniques for thyroid cancer diagnosis'
p1
a(lp2
F0.48203052920579803
aF0.4296359064660374
aF0.4139175196441092
aF0.3824807460002528
aF0.3510439723563964
aF0.3353255855344682
aF0.29340988734265966
aF0.28293096279470753
aF0.2776915005207315
aF0.2619731136988033
aa.(lp0
S'Automated Image Artifact Identification in Dark Energy Survey CCD Exposures'
p1
a(lp2
F0.6810502561917612
aF0.5119303939159549
aF0.47993474429620764
aF0.3519521458172189
aF0.34281053164014824
aF0.2742484253121186
aF0.2696776182235833
aF0.2559651969579774
aF0.24225277569237144
aF0.23311116151530084
aa.(lp0
S'Techniques for Local Ancestry Inference in Admixed Populations'
p1
a(lp2
F0.5810869101344217
aF0.5452173477804451
aF0.5308695228388545
aF0.42684779201232215
aF0.38380431718755015
aF0.3622825797751642
aF0.2582608489486319
aF0.2582608489486319
aF0.1972825929468716
aF0.1972825929468716
aa.(lp0
S'Exploring the Structure of Private Foundations'
p1
a(lp2
F0.6096258483374157
aF0.5940939795899657
aF0.36499891556507696
aF0.3455840796307644
aF0.34170111244390183
aF0.2562758343329264
aF0.25239286714606385
aF0.2213291296511637
aF0.1980313265299886
aF0.17861649059567597
aa.(lp0
S'Finding Poverty in Satellite Images'
p1
a(lp2
F0.3818648960042158
aF0.3167742887307699
aF0.299416793457851
aF0.2950774196396213
aF0.2777199243667024
aF0.2256474385479457
aF0.22130806472971598
aF0.19527182182033764
aF0.17357495272918902
aF0.16923557891095928
aa.(lp0
S'Landslides Susceptibility Mapping In Nepal Using Spatial Feature Vectors'
p1
a(lp2
F0.6580458102781639
aF0.609789117524432
aF0.4036014303039405
aF0.3860535420298562
aF0.3728926258242929
aF0.3728926258242929
aF0.35973170961872963
aF0.3377968492761242
aF0.3158619889335187
aF0.29392712859091324
aa.(lp0
S'Analyze Rainfall Frequency and Deriving IDF Curve Automatically'
p1
a(lp2
F0.4546334068703779
aF0.37161339344187405
aF0.3439400556323728
aF0.32417338576844335
aF0.2648733761766549
aF0.26092004220386905
aF0.26092004220386905
aF0.24510670631272546
aF0.24115337233993958
aF0.225340036448796
aa.(lp0
S'From Grayscale to Color: Digital Image Colorization using Machine Learning'
p1
a(lp2
F0.5035232194412008
aF0.44001578635852684
aF0.3946533341566168
aF0.3719721080556619
aF0.3084646749729879
aF0.29031969409222386
aF0.28124720365184186
aF0.2313485062297409
aF0.2222760157893589
aF0.21773977056916793
aa.(lp0
S"What's your Type? Personalized Predictions of Facial Attractiveness"
p1
a(lp2
F0.9514124886929225
aF0.41227874510026646
aF0.3946599953096568
aF0.36294624568655937
aF0.35237499581219356
aF0.24313874711041353
aF0.2396149971522916
aF0.23609124719416968
aF0.2290437472779258
aF0.22551999731980385
aa.(lp0
S'A Personalized Company Recommender System for Job Seekers '
p1
a(lp2
F0.3384155248242489
aF0.30765047711295357
aF0.30765047711295357
aF0.2691941674738344
aF0.2691941674738344
aF0.24612038169036285
aF0.192281548195596
aF0.18843591723168407
aF0.18459028626777216
aF0.18074465530386022
aa.(lp0
S'Rating the Raters: Bias Analysis on Yelp Reviews for Improved Star Rating System'
p1
a(lp2
F0.5148725226166212
aF0.4689017616687086
aF0.441319305099961
aF0.38615439196246587
aF0.3677660875833008
aF0.3126011744458057
aF0.2804216417822669
aF0.26663041349789307
aF0.2436450330239368
aF0.22985380473956304
aa.(lp0
S'Prediction of Time of Peak Exchange Rate'
p1
a(lp2
F0.8204289885604089
aF0.6388320582861682
aF0.5253339768647678
aF0.5188483722121163
aF0.47993474429620764
aF0.4312927094013217
aF0.3826506745064358
aF0.35670825589583
aF0.2886094070429897
aF0.285366604716664
aa.(lp0
S'Eyes around the world - Learning to alert and cluster live webcams'
p1
a(lp2
F0.4022052000222455
aF0.3976860404714338
aF0.3705710831665633
aF0.3615327640649398
aF0.3208603281076341
aF0.28922621125195186
aF0.28018789215032835
aF0.2395154561930226
aF0.1988430202357169
aF0.19432386068490515
aa.(lp0
S'Recognizing network traces of various web services'
p1
a(lp2
F0.46276756059665425
aF0.28363173068827197
aF0.25377575903687494
aF0.2463117661240257
aF0.22391978738547788
aF0.22018779092905327
aF0.19406381573408085
aF0.1903318192776562
aF0.17540383345195767
aF0.17540383345195767
aa.(lp0
S'Intelligent Rapid Voice Recognition Using Neural Tensor Networks, Support Vector Machines, and Reinforcement Learning'
p1
a(lp2
F0.6436624825847577
aF0.503056600466728
aF0.4624371234104084
aF0.34057869224144943
aF0.32183124129237883
aF0.30933294065966505
aF0.3062083655014866
aF0.29995921518512975
aF0.2968346400269513
aF0.2968346400269513
aa.(lp0
S'For-TUNE teller'
p1
a(lp2
F0.4490033990297161
aF0.3891362791590873
aF0.3093134526649155
aF0.28436881938548686
aF0.25942418610605816
aF0.23946847948251523
aF0.21452384620308657
aF0.1596456529883435
aF0.1596456529883435
aF0.15465672633245775
aa.(lp0
S'Sales Prediction with Time Series Modeling'
p1
a(lp2
F0.6783693020340626
aF0.45686095851273606
aF0.45224620135604177
aF0.3507215439087671
aF0.30457397234182404
aF0.29072970087174116
aF0.28611494371504687
aF0.2307378578347152
aF0.22612310067802088
aF0.22612310067802088
aa.(lp0
S'Gimme Food by The Yelping Stones'
p1
a(lp2
F0.909068596438499
aF0.8121458416711591
aF0.5915630204765233
aF0.4344813144742826
aF0.29745259221700887
aF0.2740574445145475
aF0.26737311659955854
aF0.2540044607695806
aF0.2506622968120861
aF0.23729364098210823
aa.(lp0
S'Portfolio Recommendation System'
p1
a(lp2
F0.31574654230013655
aF0.3052216575567987
aF0.2578596762117782
aF0.24207234909677136
aF0.20523525249508878
aF0.1947103677517509
aF0.1947103677517509
aF0.18944792538008193
aF0.17366059826507513
aF0.16839815589340618
aa.(lp0
S'Learning the topology of the genome from protein-DNA interactions'
p1
a(lp2
F0.5823010421522766
aF0.511831489280345
aF0.430235164902319
aF0.2522068208048077
aF0.23366220162798362
aF0.20028188710970024
aF0.18915511560360576
aF0.18173726793287615
aF0.1706104964267817
aF0.16319264875605205
aa.(lp0
S"Predicting a Song's Path and Success Through the Billboard Hot 100"
p1
a(lp2
F0.7262610844649725
aF0.5388388691191731
aF0.3012142746628918
aF0.2911737988407954
aF0.24431824500434557
aF0.23093094390821706
aF0.2275841186341849
aF0.2275841186341849
aF0.22423729336015277
aF0.22423729336015277
aa.(lp0
S'Classification of Novel Genres by Cover and Title'
p1
a(lp2
F0.4878186826008681
aF0.41390676099467594
aF0.39912437667343753
aF0.28579276354394295
aF0.2660829177822917
aF0.2562279949014661
aF0.25130053346105324
aF0.23159068769940203
aF0.2217357648185764
aF0.21680830337816362
aa.(lp0
S'Predicting winning rate of DotA2 games'
p1
a(lp2
F0.6977024917081431
aF0.47570624434646125
aF0.433421244848998
aF0.3946599953096568
aF0.3840887454352909
aF0.3382799959797058
aF0.2783762466916329
aF0.26075749690102323
aF0.2572337469429013
aF0.24666249706853546
aa.(lp0
S'Smart Adaptive Sampling for Photorealistic Rendering: Learning Samplers for Monte Carlo Ray Tracing'
p1
a(lp2
F0.4888815970527281
aF0.3323116738136191
aF0.2620149735838151
aF0.2620149735838151
aF0.25242905991611453
aF0.24603845080431413
aF0.23325723258071343
aF0.23325723258071343
aF0.22367131891301287
aF0.22367131891301287
aa.(lp0
S'Handwritten Digit Recognition through Unsupervised Learning'
p1
a(lp2
F1.000479351571325
aF0.7900464252260647
aF0.649757807662558
aF0.6460660019372025
aF0.550079053077961
aF0.5094691900990511
aF0.324878903831279
aF0.3174952923805681
aF0.3101116809298572
aF0.29534445802843545
aa.(lp0
S'Predicting Future Employment, Productivity, and Income'
p1
a(lp2
F0.4594080037051274
aF0.3812108966914887
aF0.3812108966914887
aF0.30301378967785003
aF0.2981264704894976
aF0.2785771937360879
aF0.2736898745477355
aF0.22481668266421131
aF0.21015472509915403
aF0.20526740591080161
aa.(lp0
S'Acoustic Texture Classification'
p1
a(lp2
F0.6544564694948285
aF0.3569762560880883
aF0.3569762560880883
aF0.3569762560880883
aF0.3569762560880883
aF0.3569762560880883
aF0.31731222763385625
aF0.25781618495250824
aF0.2379841707253922
aF0.2379841707253922
aa.(lp0
S'Financial Magic'
p1
a(lp2
F0.8811301946063186
aF0.3421409798205386
aF0.32808039160873564
aF0.27183803876152385
aF0.2671511760242562
aF0.2577774505497209
aF0.25309058781245325
aF0.21090882317704435
aF0.1968482349652414
aF0.1968482349652414
aa.(lp0
S'User Demographics and Profile Pictures as a Predictor of Attractiveness in AI Meets Online Dating Online Dating Profiles'
p1
a(lp2
F0.5117787557660982
aF0.3260220221917366
aF0.24262103977059468
aF0.2160843635456859
aF0.2160843635456859
aF0.19333864106719262
aF0.1895476873207771
aF0.17059291858869938
aF0.15922005734945277
aF0.15163814985662166
aa.(lp0
S'Predicting Musical Eras of Songs'
p1
a(lp2
F0.5162088819465024
aF0.49760676007455634
aF0.38599402884288014
aF0.2557791757392579
aF0.24182758433529838
aF0.2371770538673119
aF0.2278759929313389
aF0.21857493199536585
aF0.20462334059140633
aF0.19997281012341983
aa.(lp0
S'Medical image retrieval from 3D lesion content'
p1
a(lp2
F0.31947244703529704
aF0.2940598660211257
aF0.2323435978438524
aF0.1815184358155097
aF0.15247548608502812
aF0.13432364250347717
aF0.12706290507085677
aF0.12706290507085677
aF0.11254143020561601
aF0.09801995534037522
aa.(lp0
S'Top-Rated Series Characterization and Audience Rating Prediction'
p1
a(lp2
F0.512848929311737
aF0.38272308157592316
aF0.3061784652607385
aF0.28704231118194234
aF0.2832150803661831
aF0.2449427722085908
aF0.2449427722085908
aF0.19136154078796158
aF0.17987984834068385
aF0.17987984834068385
aa.