(VJatin
p0
(lp1
F0.5
aF0.5
aF0.0
aF-0.5
aF0.5
aF0.5
aF0.0
atp2
.(VKunal
p0
(lp1
F0.4472135954999579
aF0.4472135954999579
aF0.0
aF0.0
aF0.4472135954999579
aF0.4472135954999579
aF0.4472135954999579
atp2
.(VNeerav
p0
(lp1
F0.7071067811865475
aF0.7071067811865475
aF0.0
aF0.0
aF0.0
aF-0.7071067811865475
aF-0.7071067811865475
atp2
.(VKishan
p0
(lp1
F0.0
aF0.5
aF0.5
aF0.5
aF0.5
aF0.0
aF0.0
atp2
.(VMilind
p0
(lp1
F0.4472135954999579
aF0.4472135954999579
aF-0.4472135954999579
aF0.4472135954999579
aF0.4472135954999579
aF-0.4472135954999579
aF0.4472135954999579
atp2
.(VKumar Milind
p0
(lp1
F0.4472135954999579
aF0.4472135954999579
aF-0.4472135954999579
aF0.4472135954999579
aF0.4472135954999579
aF-0.4472135954999579
aF0.4472135954999579
atp2
.(VAmit Singh
p0
(lp1
F0.4472135954999579
aF0.4472135954999579
aF0.4472135954999579
aF0.4472135954999579
aF0.4472135954999579
aF0.0
aF0.0
atp2
.(Vkaushik
p0
(lp1
F0.0
aF0.5
aF0.5
aF0.5
aF0.0
aF0.5
aF0.0
atp2
.(VVaishnavi K
p0
(lp1
F0.5
aF0.0
aF0.0
aF0.5
aF0.5
aF0.5
aF-0.5
atp2
.(VSonali
p0
(lp1
F0.0
aF0.0
aF0.5773502691896258
aF0.0
aF0.5773502691896258
aF0.5773502691896258
aF0.0
atp2
.(VAkshat Maheshwari
p0
(lp1
F-0.7071067811865475
aF0.0
aF0.7071067811865475
aF0.0
aF0.0
aF0.7071067811865475
aF-0.7071067811865475
atp2
.(VHeisenberg
p0
(lp1
F0.0
aF0.5773502691896258
aF0.5773502691896258
aF0.0
aF0.0
aF0.5773502691896258
aF-0.5773502691896258
atp2
.(VVaishnavi S
p0
(lp1
F0.4472135954999579
aF0.0
aF0.4472135954999579
aF0.4472135954999579
aF0.4472135954999579
aF0.4472135954999579
aF-0.4472135954999579
atp2
.(VPranav Singhania
p0
(lp1
F0.5
aF0.5
aF0.5
aF-0.5
aF-0.5
aF0.5
aF0.0
atp2
.(VSourabh V G
p0
(lp1
F-0.5773502691896258
aF-0.5773502691896258
aF0.5773502691896258
aF0.5773502691896258
aF-0.5773502691896258
aF0.5773502691896258
aF-0.5773502691896258
atp2
.(VAbhijeet Anand
p0
(lp1
F0.4082482904638631
aF0.4082482904638631
aF0.0
aF0.4082482904638631
aF0.4082482904638631
aF0.4082482904638631
aF0.4082482904638631
atp2
.(VVikkram Vasuki
p0
(lp1
F0.5773502691896258
aF0.0
aF0.0
aF-0.5773502691896258
aF0.5773502691896258
aF-0.5773502691896258
aF0.5773502691896258
atp2
.(VAdithya Rao
p0
(lp1
F0.5
aF-0.5
aF0.5
aF0.5
aF0.5
aF0.0
aF0.0
atp2
.(VNaveen Holla U
p0
(lp1
F0.3779644730092272
aF0.3779644730092272
aF0.3779644730092272
aF0.3779644730092272
aF0.3779644730092272
aF0.3779644730092272
aF0.3779644730092272
atp2
.(VMadhura
p0
(lp1
F0.0
aF0.5
aF0.0
aF0.5
aF0.0
aF0.5
aF0.5
atp2
.(VAnjana
p0
(lp1
F0.4472135954999579
aF0.0
aF0.4472135954999579
aF0.4472135954999579
aF0.4472135954999579
aF0.4472135954999579
aF-0.4472135954999579
atp2
.(VIshdeep
p0
(lp1
tp2
.(Vjhgfhkg
p0
(lp1
tp2
.(Vhimanshu singh
p0
(lp1
F0.4472135954999579
aF0.4472135954999579
aF0.4472135954999579
aF0.4472135954999579
aF0.4472135954999579
aF-0.4472135954999579
aF0.0
atp2
.(VAniket Prabhu
p0
(lp1
F-0.5
aF-0.5
aF0.0
aF0.5
aF0.5
aF0.5
aF0.5
atp2
.(VAkash R Shetty
p0
(lp1
F0.5773502691896258
aF0.0
aF-0.5773502691896258
aF-0.5773502691896258
aF0.5773502691896258
aF0.5773502691896258
aF0.0
atp2
.(VVINOD  MANGALORE
p0
(lp1
F0.0
aF-0.5773502691896258
aF0.5773502691896258
aF0.5773502691896258
aF0.0
aF0.5773502691896258
aF-0.5773502691896258
atp2
.(VAnjali Baid
p0
(lp1
F0.0
aF0.5
aF0.5
aF0.5
aF-0.5
aF0.5
aF0.0
atp2
.(VVaibhav S
p0
(lp1
F0.4082482904638631
aF0.0
aF0.4082482904638631
aF0.4082482904638631
aF0.4082482904638631
aF0.4082482904638631
aF0.4082482904638631
atp2
.(Vb sec student
p0
(lp1
F0.3779644730092272
aF0.3779644730092272
aF0.3779644730092272
aF0.3779644730092272
aF0.3779644730092272
aF0.3779644730092272
aF0.3779644730092272
atp2
.(VGGB
p0
(lp1
F0.5773502691896258
aF0.5773502691896258
aF0.5773502691896258
aF0.0
aF-0.5773502691896258
aF-0.5773502691896258
aF-0.5773502691896258
atp2
.(VJanardhana M T
p0
(lp1
F0.4472135954999579
aF0.4472135954999579
aF0.4472135954999579
aF0.4472135954999579
aF0.0
aF0.4472135954999579
aF-0.4472135954999579
atp2
.(VT KARTHIK UDUPA
p0
(lp1
F-0.4472135954999579
aF0.4472135954999579
aF0.4472135954999579
aF0.4472135954999579
aF0.0
aF0.4472135954999579
aF0.4472135954999579
atp2
.(VSudharshana
p0
(lp1
F0.4472135954999579
aF0.4472135954999579
aF0.4472135954999579
aF0.4472135954999579
aF0.4472135954999579
aF0.0
aF-0.4472135954999579
atp2
.(Vsachin jogi
p0
(lp1
F0.0
aF0.0
aF0.0
aF0.7071067811865475
aF0.0
aF0.7071067811865475
aF0.0
atp2
.(VPrashant Babel
p0
(lp1
F0.7071067811865475
aF0.7071067811865475
aF0.0
aF0.0
aF0.0
aF0.0
aF-0.7071067811865475
atp2
.(VShubham Khandelwal
p0
(lp1
F0.5
aF0.5
aF0.5
aF0.5
aF0.0
aF0.0
aF0.0
atp2
.(VSakshat
p0
(lp1
F0.7071067811865475
aF0.0
aF0.0
aF0.0
aF-0.7071067811865475
aF0.0
aF0.7071067811865475
atp2
.(VSayan
p0
(lp1
F-1.0
aF-1.0
aF-1.0
aF-1.0
aF1.0
aF0.0
aF0.0
atp2
.(VSohail Kalra
p0
(lp1
F0.5773502691896258
aF0.5773502691896258
aF0.0
aF0.0
aF0.5773502691896258
aF-0.5773502691896258
aF-0.5773502691896258
atp2
.(VNaman Pandey
p0
(lp1
F0.0
aF0.0
aF0.0
aF1.0
aF0.0
aF0.0
aF0.0
atp2
.(VIshdeep
p0
(lp1
F0.5773502691896258
aF0.5773502691896258
aF0.0
aF0.5773502691896258
aF0.0
aF0.0
aF0.0
atp2
.(VAmogh
p0
(lp1
tp2
.(VRitesh Singh
p0
(lp1
F0.0
aF-1.0
aF0.0
aF-1.0
aF0.0
aF0.0
aF1.0
atp2
.(VAmit Singh
p0
(lp1
F0.0
aF0.0
aF0.0
aF0.5773502691896258
aF0.5773502691896258
aF0.0
aF0.5773502691896258
atp2
.(VSaqib
p0
(lp1
F-0.5
aF0.0
aF0.5
aF0.5
aF-0.5
aF0.5
aF0.5
atp2
.(VShreyas Patil
p0
(lp1
F-0.5773502691896258
aF0.0
aF0.5773502691896258
aF0.0
aF0.5773502691896258
aF0.5773502691896258
aF-0.5773502691896258
atp2
.(VSatyajith
p0
(lp1
F0.7071067811865475
aF0.0
aF-0.7071067811865475
aF0.0
aF-0.7071067811865475
aF0.7071067811865475
aF-0.7071067811865475
atp2
.(Vsachin
p0
(lp1
F0.4472135954999579
aF0.4472135954999579
aF-0.4472135954999579
aF0.4472135954999579
aF0.4472135954999579
aF0.0
aF0.4472135954999579
atp2
.