(lp0
F3.9274111011060326
aF2.8006318622854645
aF2.139512384058328
aF1.4043244612829082
aF1.4008247612706566
aF1.352710045865345
aF1.323957915299883
aF1.2873505240665146
aF1.2472681861285044
aF1.1351754698737717
a.(lp0
F3.9274111011060326
aF2.8006318622854645
aF2.139512384058328
aF1.4043244612829082
aF1.4008247612706566
aF1.352710045865345
aF1.323957915299883
aF1.2873505240665146
aF1.2472681861285044
aF1.1351754698737717
a.