(lp0
S'A Review of: Cloud Centric IoT based Framework for Supply Chain Management in Precision Agriculture'
p1
a(lp2
F0.8072976408686208
aF0.7826096396188158
aF0.60238723049524
aF0.4246336214966446
aF0.39994562024683966
aF0.3950080199968787
aF0.3579760181221713
aF0.3234128163724444
aF0.31600641599750295
aF0.31600641599750295
aa.(lp0
S'Taming the Interoperability Challenges of Complex IoT Systems'
p1
a(lp2
F0.9247650913567755
aF0.3641426280413365
aF0.34056504780844427
aF0.26983230710976736
aF0.2252968777809708
aF0.22005741550699476
aF0.2148179532330187
aF0.2148179532330187
aF0.18338117958916228
aF0.17290225504121015
aa.(lp0
S'Make-span Improvement with Data Partitioning for IoT Frameworks'
p1
a(lp2
F0.4454243864287545
aF0.39325756639655807
aF0.3170137525033478
aF0.2768854294016582
aF0.2768854294016582
aF0.22471860936946172
aF0.21268011243895485
aF0.1685389570270963
aF0.1404491308559136
aF0.13242346623557566
aa.(lp0
S'Finnish perspectives for the IOT '
p1
a(lp2
F2.270978348629332
aF1.1087601353377732
aF1.0038239082433054
aF0.9582855455419327
aF0.8177105998116078
aF0.7860317388019571
aF0.7464331625398939
aF0.724653945595759
aF0.6335772201930132
aF0.6236775761274975
aa.(lp0
S'Adopting Aspect-Oriented Software Development in Business Application Engineering'
p1
a(lp2
F0.9523766700701244
aF0.6073126591751518
aF0.44562552264150745
aF0.39633066394222566
aF0.38252810350642674
aF0.37661272046251293
aF0.3687255430706279
aF0.3588665713307715
aF0.35097939393888644
aF0.33717683350308747
aa.(lp0
S'A Design of the IOT Gateway for Agricultural Greenhouse '
p1
a(lp2
F0.563486137027936
aF0.5294826632417675
aF0.48090627211866954
aF0.4323298809955716
aF0.3497500160863051
aF0.3351770987493758
aF0.3108889031878268
aF0.30117362496320715
aF0.2768854294016582
aF0.26717015117703863
aa.(lp0
S'Toward an Inverse-free Lightweight Encryption Scheme for IoT'
p1
a(lp2
F0.9069953218479176
aF0.8053142319546533
aF0.7727762831888088
aF0.7646417959973476
aF0.7199021164443113
aF0.6222882701467777
aF0.5490778854236273
aF0.5287416674449744
aF0.5287416674449744
aF0.4962037186791299
aa.(lp0
S'An IoT based reference architecture for smart water management processes'
p1
a(lp2
F0.6972636851095846
aF0.5569054108342786
aF0.5478500383003879
aF0.5387946657664973
aF0.4301301953598087
aF0.41201945029202725
aF0.3984363914911912
aF0.33504878375395625
aF0.3214657249531202
aF0.2671334897497759
aa.(lp0
S'IOT Technology research in e-commerce'
p1
a(lp2
F0.4390496934752334
aF0.3809743371954407
aF0.29966883840373076
aF0.2787617101430054
aF0.23694745362155456
aF0.2206863538632126
aF0.2183633396120209
aF0.21604032536082918
aF0.19513319710010377
aF0.19048716859772036
aa.(lp0
S'DeTAS: a Decentralized Traffic Aware Scheduling technique enabling IoT-compliant Multi-hop Low-power and Lossy Networks'
p1
a(lp2
F0.41665644003431207
aF0.3854629097643636
aF0.3275320678344592
aF0.26737311659955854
aF0.21612660258464314
aF0.2005298374496689
aF0.19161740022968365
aF0.18716118161969097
aF0.18716118161969097
aF0.18270496300969832
aa.(lp0
S'Smart Medicine and Physical Health System Using IoT'
p1
a(lp2
F0.4397978528693005
aF0.23057363160138086
aF0.17079528266768956
aF0.14944587233422835
aF0.13663622613415163
aF0.1323663440674594
aF0.12809646200076716
aF0.12382657993407492
aF0.1110169337339982
aF0.1110169337339982
aa.(lp0
S'Study on Supply-chain of Modern Agricultural Products Based on IOT in Order to Guarantee the Quality and Safety'
p1
a(lp2
F1.5600587624978306
aF1.3379670636700145
aF1.0743460227849644
aF0.9190623959622637
aF0.8143362290353259
aF0.7746125105457978
aF0.6500244843740961
aF0.6446076136709786
aF0.619328883723097
aF0.6139120130199797
aa.(lp0
S'COMPOSE: Building Smart & Context-Aware Mobile Applications utilizing IoT Technologies'
p1
a(lp2
F3.025520072090847
aF1.6164717170036202
aF1.4913024468816587
aF1.2445401714983626
aF1.1980487283102053
aF1.1157946365157732
aF0.6830665883798483
aF0.6687615289373384
aF0.6580327343554561
aF0.650880204634201
aa.(lp0
S'Sensing as a Service Model for Smart Cities Supported by Internet of Things'
p1
a(lp2
F0.7533200746427491
aF0.6740232246803545
aF0.5569659699739624
aF0.519205565229965
aF0.45501287716516925
aF0.3719399867283749
aF0.3266275010355779
aF0.32285146056117825
aF0.31341135937517883
aF0.3096353189007791
aa.(lp0
S'Controller Design of Two-wheeled Differential Drive with a passive castor wheel using Feedback Linearization'
p1
a(lp2
F0.7098601917801051
aF0.7063974591372753
aF0.5194098964244671
aF0.4397670456393821
aF0.4293788477108928
aF0.3982142539254248
aF0.38090059071127585
aF0.3254968684259994
aF0.32203413578316964
aF0.3116459378546802
aa.(lp0
S'On the features and challenges of security and privacy in distributed internet of things'
p1
a(lp2
F1.1476700407083225
aF1.047729396015062
aF1.0180766772599186
aF0.7270407339224014
aF0.6446720707136702
aF0.6391808264997548
aF0.6007421170023468
aF0.5963491216312145
aF0.5875631308889497
aF0.5524191679198911
aa.(lp0
S'A Bi-direction Authentication Protocol for RFID Based on the Variable Update in IOT'
p1
a(lp2
F0.39579393560759907
aF0.3930261458481054
aF0.3625804584936747
aF0.35704487897468734
aF0.34320593017721884
aF0.3182958223417755
aF0.2961535042658259
aF0.26847560667088893
aF0.2657078169113952
aF0.25463665787342044
aa.(lp0
S'Interoperation among IoT Standards'
p1
a(lp2
F0.8921863836275654
aF0.5963686171728023
aF0.45437608927451606
aF0.4496430050112399
aF0.4094117887733921
aF0.35971440400899185
aF0.31948318777114415
aF0.2839850557965725
aF0.2674192608751058
aF0.2603196344801915
aa.(lp0
S'SDN: Evolution and Opportunities in the Development IoT Applications'
p1
a(lp2
F1.430133003784417
aF1.0203146704937007
aF0.9417359340220295
aF0.8438147393419468
aF0.7011641100549129
aF0.6757771336563728
aF0.658852482724013
aF0.5440066371115703
aF0.473890226106079
aF0.4581744788117448
aa.(lp0
S'A Recommendation Model Using the Bandwagon Effect for E-Marketing Purposes in IoT'
p1
a(lp2
F3.9638782178452114
aF1.5531630528604266
aF1.5126777600133539
aF1.2881684087704959
aF1.1335881997180364
aF1.1151857938784577
aF0.9606055848259983
aF0.9532446224901668
aF0.8685935556281058
aF0.8281082627810331
aa.(lp0
S'Embedded Actors \xe2\x80\x93 A Better Abstraction for Distributed Messaging in the IoT'
p1
a(lp2
F0.6484412445913834
aF0.38818251376899143
aF0.35289319433544675
aF0.32201503983109514
aF0.32201503983109514
aF0.3043703801143228
aF0.23379174124723348
aF0.22055824645965424
aF0.18968009195530264
aF0.17644659716772337
aa.(lp0
S'Big Data Summarization Using Semantic Feature for IoT on Cloud'
p1
a(lp2
F0.6779900069252933
aF0.5177378234702239
aF0.3821398220851653
aF0.32461339725514043
aF0.31639533656513685
aF0.30406824553013156
aF0.29995921518512975
aF0.2711960027701173
aF0.2711960027701173
aF0.24243279035510487
aa.(lp0
S'Californium: Scalable Cloud Services for the Internet of Things with CoAP'
p1
a(lp2
F1.7498961186135185
aF1.2657796372691532
aF1.1708863734840453
aF0.995575089542066
aF0.9280239526102941
aF0.9119403485789198
aF0.6690779277051688
aF0.4728579585224029
aF0.46159943570044093
aF0.352230928287096
aa.(lp0
S'WSN Trust Models Evaluation in the Context of the IoT'
p1
a(lp2
a.(lp0
S'Internet of Things for Smart Cities'
p1
a(lp2
F0.3240938646827839
aF0.3154743470050502
aF0.3103026363984101
aF0.2758245656874756
aF0.2568616267964617
aF0.25341381972536825
aF0.236174784369901
aF0.17239035355467225
aF0.15515131819920505
aF0.1534274146636583
aa.(lp0
S'Intelligent Healthcare Service by using Collaborations between IoT Personal Health Devices'
p1
a(lp2
F0.5552963983592485
aF0.5288537127230938
aF0.423082970178475
aF0.37019759890616566
aF0.31731222763385625
aF0.29748021340674025
aF0.25781618495250824
aF0.21815215649827618
aF0.17848812804404415
aF0.17848812804404415
aa.(lp0
S'Enabling Smart Cities through a Cognitive Management Framework for the Internet of Things'
p1
a(lp2
F2.0345059812556627
aF1.199836860740519
aF0.6260018403863578
aF0.6260018403863578
aF0.6260018403863578
aF0.6260018403863578
aF0.6260018403863578
aF0.46950138028976834
aF0.46950138028976834
aF0.46950138028976834
aa.(lp0
S'NOVEL CONTEXT-AWARE CLUSTERING WITH HIERARCHICAL ADDRESSING (CCHA) FOR THE INTERNET OF THINGS (IoT)'
p1
a(lp2
F3.921418032664135
aF3.3068674454555764
aF1.5217443111830973
aF1.1413082333873228
aF1.0535152923575288
aF0.8779294102979407
aF0.8779294102979407
aF0.8779294102979407
aF0.8779294102979407
aF0.8194007829447447
aa.(lp0
S'An Approach for Cyber Security Experimentation Supporting Sensei/IoT for Smart Grid'
p1
a(lp2
F1.431805320483686
aF1.403809127066407
aF1.3078221782071657
aF1.0358591564393147
aF0.8478847149233001
aF0.7398993974566535
aF0.5599238683455755
aF0.5159298501184232
aF0.503931481511018
aF0.4959325691060812
aa.(lp0
S'Design Requirements for IoT Healthcare Model using an Open IoT Platform '
p1
a(lp2
F0.5613271863113539
aF0.32276313212902846
aF0.3180854055764339
aF0.22453087452454154
aF0.20114224176156847
aF0.18243133555119
aF0.17307588244600078
aF0.16372042934081155
aF0.1496872496830277
aF0.12629861692005462
aa.(lp0
S'THE DESIGN OF A SENSOR NETWORK BASED ON IOT TECHNOLOGY FOR LANDSLIDE HAZARD ASSESSMENT'
p1
a(lp2
F0.45060539881143935
aF0.4452727905414815
aF0.36794997062709245
aF0.346619537547261
aF0.31195758379253496
aF0.31195758379253496
aF0.29595975898266136
aF0.271963021767851
aF0.2293021556081881
aF0.22663585147320914
aa.(lp0
S'Demo Abstract: How Temperature Affects IoT Communication'
p1
a(lp2
F2.0729575809977043
aF1.0392953089512946
aF0.9322676077584784
aF0.904102423234053
aF0.7858086482314667
aF0.723845242277731
aF0.7125791684679609
aF0.7125791684679609
aF0.6506157625142251
aF0.6309001333471274
aa.(lp0
S'Profiling of DTLS for CoAP-based IoT Applications'
p1
a(lp2
F0.6953599988382554
aF0.6817254890571132
aF0.470390587449408
aF0.470390587449408
aF0.4431215678871235
aF0.415852548324839
aF0.3749490189814122
aF0.3681317640908411
aF0.24542117606056071
aF0.23860392116998955
aa.(lp0
S'High-level Programming and Symbolic Reasoning on IoT Resource Constrained Devices'
p1
a(lp2
F3.2362735163126954
aF3.0320081736255604
aF1.8508216267825621
aF1.4334098395523298
aF1.3961092117572877
aF1.2717737857738145
aF1.191843869070153
aF1.092375528283374
aF1.007116950466135
aF1.0035645097237502
aa.(lp0
S'Novel Threshold Cryptography-based Group Authentication (TCGA) Scheme for the Internet of Things (IoT)'
p1
a(lp2
F0.584833440825166
aF0.5105688769108592
aF0.4827196654429941
aF0.3573982138376014
aF0.3016997909018713
aF0.2692090441893621
aF0.24600136796614122
aF0.2320767622322087
aF0.21815215649827618
aF0.21815215649827618
aa.(lp0
S'The constitution of vegetable traceability system in agricultural IOT'
p1
a(lp2
F1.108853970826546
aF0.7961002867472637
aF0.7676681336491471
aF0.545897339483838
aF0.4662873108091117
aF0.42648229647174846
aF0.38667728213438524
aF0.38667728213438524
aF0.35824512903626865
aF0.33549940655777544
aa.(lp0
S'Insecurity of An Anonymous Authentication For Privacy-preserving IoT Target-driven Applications'
p1
a(lp2
F2.832111231112776
aF1.2831342498908946
aF1.2654114011354958
aF1.1697080178563406
aF1.081093774079345
aF0.9924795303023496
aF0.6522008341986869
aF0.609665997185729
aF0.5954877181814098
aF0.5777648694260106
aa.(lp0
S'RFID Modular System for the Internet of Things (IoT)'
p1
a(lp2
F0.8875505545203839
aF0.49308364140021327
aF0.49308364140021327
aF0.46021139864019905
aF0.3944669131201706
aF0.2629779420801137
aF0.2629779420801137
aF0.2629779420801137
aF0.2629779420801137
aF0.2629779420801137
aa.(lp0
S'An IoT-leveraged information system for future shopping environments'
p1
a(lp2
F2.5578184079969803
aF0.9729336148698192
aF0.9729336148698192
aF0.6807097376120995
aF0.6050753223218663
aF0.5981994663863905
aF0.48474784345104066
aF0.48474784345104066
aF0.3987996442575937
aF0.35410658067700135
aa.(lp0
S'Agile Manufacturing '
p1
a(lp2
F1.75821843221573
aF1.629927374362668
aF0.8118089890374063
aF0.6456615534572118
aF0.6435584213612601
aF0.5846707226746087
aF0.46479219320535436
aF0.45427653272559526
aF0.39538883403894404
aF0.3869763056551367
aa.(lp0
S'Advances in Wireless M2M and IoT: Rapid SDR-prototyping of IEEE 802.11ah'
p1
a(lp2
F0.5339994153988274
aF0.3766800855510401
aF0.3456593726233074
aF0.3079913640682034
aF0.29248100760433704
aF0.2570287642583568
aF0.24594993821273797
aF0.22600805133062407
aF0.19720310361201515
aF0.19720310361201515
aa.(lp0
S'Modelling and analysis of IoT Real-Time system using TCPN'
p1
a(lp2
F1.0837236161527268
aF0.7529767982359855
aF0.6122334714629041
aF0.5559361407536715
aF0.5559361407536715
aF0.5207503090604012
aF0.5207503090604012
aF0.5137131427217472
aF0.47852731102847673
aF0.47852731102847673
aa.(lp0
S'Optic Fiber Sensing IOT Technology and Application Research '
p1
a(lp2
F0.4449726106057554
aF0.317837579004111
aF0.23837818425308321
aF0.22645927504042906
aF0.2185133355653263
aF0.21056739609022354
aF0.20262145661512077
aF0.1867295776649152
aF0.17878363818981244
aF0.1549458197645041
aa.(lp0
S'A Method of WSN and Sensor Cloud System to Monitor Cold Chain Logistics as Part of the IoT Technology'
p1
a(lp2
F0.7389024655586773
aF0.7037166338654071
aF0.696679467526753
aF0.43630431299655237
aF0.3588954832713576
aF0.3448211505940495
aF0.3096353189007791
aF0.2885238198848169
aF0.2603751545302006
aF0.24630082185289248
aa.(lp0
S'Smart Security Solutions based on Internet of Things (IoT)'
p1
a(lp2
F0.3691805725355443
aF0.1591295571273898
aF0.1463991925571986
aF0.12093846341681624
aF0.10184291656152945
aF0.09547773427643387
aF0.08911255199133827
aF0.08911255199133827
aF0.08274736970624269
aF0.08274736970624269
aa.(lp0
S'Secure Smart Environment Using IOT based on RFID'
p1
a(lp2
F0.819282543293526
aF0.7223260292942922
aF0.710206465044388
aF0.37328257889705035
aF0.33692388614733765
aF0.31268475764752923
aF0.30056519339762494
aF0.2908695419977016
aF0.2763260648978165
aF0.2763260648978165
aa.(lp0
S'Roles of Smart TV in IoT-environments'
p1
a(lp2
F0.6925465285659561
aF0.44322977828221194
aF0.3982142539254248
aF0.32895960106882915
aF0.3116459378546802
aF0.20776395856978683
aF0.19391302799846774
aF0.1765993647843188
aF0.1627484342129997
aF0.1558229689273401
aa.(lp0
S'ELECTRONIC COMMERCE IN DEVELOPING COUNTRIES'
p1
a(lp2
F0.5039887529602181
aF0.44242194507019134
aF0.312129398140135
aF0.3035386807601313
aF0.2978115358401288
aF0.2892208184601251
aF0.2763347423901195
aF0.25772152140011145
aF0.25772152140011145
aF0.25199437648010903
aa.(lp0
S'Research directions for the Internet of Things'
p1
a(lp2
F0.5500137113837069
aF0.38224891138636
aF0.3652600708802996
aF0.3164171544253758
aF0.2930574987295427
aF0.2718214480969671
aF0.20811329619924046
aF0.19324806075643758
aF0.18475364050340737
aF0.17625922025037713
aa.(lp0
S'Computing as Interaction: Agent and Agreement Technologies'
p1
a(lp2
F1.564367448965501
aF0.8279790245110146
aF0.5422163523346467
aF0.4103258882532462
aF0.38834414423967945
aF0.33705340820802365
aF0.31140804019219576
aF0.26011730416053996
aF0.18684482411531747
aF0.17585395210853408
aa.(lp0
S'IoT-based Intelligent for Fire Emergency Response Systems'
p1
a(lp2
F0.6006655267966234
aF0.4751533271674782
aF0.37653659888743557
aF0.34964112753833304
aF0.34366435612742136
aF0.2958501848401279
aF0.2629779420801137
aF0.24803601355283456
aF0.2420592421419229
aF0.2271173136146437
aa.(lp0
S'Securing the Internet of Things'
p1
a(lp2
F1.6454905518727119
aF1.0284315949204448
aF0.8227452759363559
aF0.8227452759363559
aF0.6170589569522669
aF0.5142157974602224
aF0.5142157974602224
aF0.3770915848041631
aF0.3770915848041631
aF0.3770915848041631
aa.(lp0
S'Internet of Things (IoT): A Vision, Architectural Elements, and Future Directions'
p1
a(lp2
F0.8585705206843354
aF0.4014898118308043
aF0.3675175969835824
aF0.2841312514494923
aF0.2656009524419167
aF0.2656009524419167
aF0.25324741977019966
aF0.24089388709848256
aF0.2378055039305533
aF0.2285403544267655
aa.(lp0
S'IOT Secure Transmission Based on Integration of IBE and PKI/CA'
p1
a(lp2
F0.8241944089631043
aF0.7893246455069729
aF0.732265032578758
aF0.570596129282149
aF0.5515762583060774
aF0.47866675289780286
aF0.3550375915533372
aF0.30431793561714615
aF0.29163802163309843
aF0.23140843020887156
aa.(lp0
S''
p1
a(lp2
F1.3600844324892527
aF0.7743054937438815
aF0.6988948717444774
aF0.5574999554955947
aF0.5574999554955947
aF0.5292209722458181
aF0.5130615532459458
aF0.4389975494965311
aF0.3797463464969993
aF0.37032001874707376
aa.(lp0
S'A Survey on the Smart Homes using Internet of Things (IoT)'
p1
a(lp2
F0.2964538487305456
aF0.2724170501848257
aF0.2684109170938724
aF0.1922943883657593
aF0.18428212218385265
aF0.18027598909289935
aF0.15223305745622612
aF0.15223305745622612
aF0.14422079127431947
aF0.14422079127431947
aa.(lp0
S'ICN\tbased\tArchitecture\tfor\tIoT'
p1
a(lp2
F0.6596942163495291
aF0.5732713932469706
aF0.5271792209256062
aF0.45804096244355946
aF0.43499487628287725
aF0.4234718332025361
aF0.3802604216512569
aF0.3773796608811716
aF0.3658566178008305
aF0.3485720531803188
aa.(lp0
S'Authentication Issues for Sensors in IoT Solutions'
p1
a(lp2
F0.5335500139952416
aF0.2290361035686891
aF0.22122805458339287
aF0.2108173226029979
aF0.19520122463240547
aF0.18999585864220797
aF0.17958512666181303
aF0.17437976067161556
aF0.16917439468141807
aF0.16657171168631935
aa.